ccopy_reg
_reconstructor
p0
(cdedupe.datamodel
DataModel
p1
c__builtin__
object
p2
Ntp3
Rp4
(dp5
S'primary_fields'
p6
(lp7
g0
(cdedupe.variables.string
StringType
p8
g2
Ntp9
Rp10
(dp11
S'predicates'
p12
(lp13
g0
(cdedupe.predicates
StringPredicate
p14
g2
Ntp15
Rp16
(dp17
S'_cached_hash'
p18
I-869788345
sS'__name__'
p19
S'(wholeFieldPredicate, Site name)'
p20
sS'func'
p21
cdedupe.predicates
wholeFieldPredicate
p22
sS'field'
p23
S'Site name'
p24
sbag0
(g14
g2
Ntp25
Rp26
(dp27
g18
I823437433
sg19
S'(firstTokenPredicate, Site name)'
p28
sg21
cdedupe.predicates
firstTokenPredicate
p29
sg23
g24
sbag0
(g14
g2
Ntp30
Rp31
(dp32
g18
I715077028
sg19
S'(commonIntegerPredicate, Site name)'
p33
sg21
cdedupe.predicates
commonIntegerPredicate
p34
sg23
g24
sbag0
(g14
g2
Ntp35
Rp36
(dp37
g18
I2088240277
sg19
S'(nearIntegersPredicate, Site name)'
p38
sg21
cdedupe.predicates
nearIntegersPredicate
p39
sg23
g24
sbag0
(g14
g2
Ntp40
Rp41
(dp42
g18
I-407144756
sg19
S'(firstIntegerPredicate, Site name)'
p43
sg21
cdedupe.predicates
firstIntegerPredicate
p44
sg23
g24
sbag0
(g14
g2
Ntp45
Rp46
(dp47
g18
I-924906608
sg19
S'(sameThreeCharStartPredicate, Site name)'
p48
sg21
cdedupe.predicates
sameThreeCharStartPredicate
p49
sg23
g24
sbag0
(g14
g2
Ntp50
Rp51
(dp52
g18
I-1553319705
sg19
S'(sameFiveCharStartPredicate, Site name)'
p53
sg21
cdedupe.predicates
sameFiveCharStartPredicate
p54
sg23
g24
sbag0
(g14
g2
Ntp55
Rp56
(dp57
g18
I-562100089
sg19
S'(sameSevenCharStartPredicate, Site name)'
p58
sg21
cdedupe.predicates
sameSevenCharStartPredicate
p59
sg23
g24
sbag0
(g14
g2
Ntp60
Rp61
(dp62
g18
I-1000481556
sg19
S'(commonTwoTokens, Site name)'
p63
sg21
cdedupe.predicates
commonTwoTokens
p64
sg23
g24
sbag0
(g14
g2
Ntp65
Rp66
(dp67
g18
I379284008
sg19
S'(commonThreeTokens, Site name)'
p68
sg21
cdedupe.predicates
commonThreeTokens
p69
sg23
g24
sbag0
(g14
g2
Ntp70
Rp71
(dp72
g18
I394284785
sg19
S'(fingerprint, Site name)'
p73
sg21
cdedupe.predicates
fingerprint
p74
sg23
g24
sbag0
(g14
g2
Ntp75
Rp76
(dp77
g18
I-1794990607
sg19
S'(oneGramFingerprint, Site name)'
p78
sg21
cdedupe.predicates
oneGramFingerprint
p79
sg23
g24
sbag0
(g14
g2
Ntp80
Rp81
(dp82
g18
I333556379
sg19
S'(twoGramFingerprint, Site name)'
p83
sg21
cdedupe.predicates
twoGramFingerprint
p84
sg23
g24
sbag0
(g14
g2
Ntp85
Rp86
(dp87
g18
I1108699137
sg19
S'(sortedAcronym, Site name)'
p88
sg21
cdedupe.predicates
sortedAcronym
p89
sg23
g24
sbag0
(g14
g2
Ntp90
Rp91
(dp92
g18
I456913044
sg19
S'(commonFourGram, Site name)'
p93
sg21
cdedupe.predicates
commonFourGram
p94
sg23
g24
sbag0
(g14
g2
Ntp95
Rp96
(dp97
g18
I-1747958125
sg19
S'(commonSixGram, Site name)'
p98
sg21
cdedupe.predicates
commonSixGram
p99
sg23
g24
sbag0
(g14
g2
Ntp100
Rp101
(dp102
g18
I-600619399
sg19
S'(tokenFieldPredicate, Site name)'
p103
sg21
cdedupe.predicates
tokenFieldPredicate
p104
sg23
g24
sbag0
(g14
g2
Ntp105
Rp106
(dp107
g18
I-699548977
sg19
S'(suffixArray, Site name)'
p108
sg21
cdedupe.predicates
suffixArray
p109
sg23
g24
sbag0
(g14
g2
Ntp110
Rp111
(dp112
g18
I-1111393783
sg19
S'(doubleMetaphone, Site name)'
p113
sg21
cdedupe.predicates
doubleMetaphone
p114
sg23
g24
sbag0
(g14
g2
Ntp115
Rp116
(dp117
g18
I-369615322
sg19
S'(metaphoneToken, Site name)'
p118
sg21
cdedupe.predicates
metaphoneToken
p119
sg23
g24
sbag0
(cdedupe.predicates
TfidfNGramCanopyPredicate
p120
g2
Ntp121
Rp122
(dp123
S'threshold'
p124
F0.2
sg19
S'(0.2, Site name)'
p125
sg23
g24
sbag0
(g120
g2
Ntp126
Rp127
(dp128
g124
F0.4
sg19
S'(0.4, Site name)'
p129
sg23
g24
sbag0
(g120
g2
Ntp130
Rp131
(dp132
g124
F0.6
sg19
S'(0.6, Site name)'
p133
sg23
g24
sbag0
(g120
g2
Ntp134
Rp135
(dp136
g124
F0.8
sg19
S'(0.8, Site name)'
p137
sg23
g24
sbag0
(cdedupe.predicates
TfidfNGramSearchPredicate
p138
g2
Ntp139
Rp140
(dp141
g124
F0.2
sg19
S'(0.2, Site name)'
p142
sg23
g24
sbag0
(g138
g2
Ntp143
Rp144
(dp145
g124
F0.4
sg19
S'(0.4, Site name)'
p146
sg23
g24
sbag0
(g138
g2
Ntp147
Rp148
(dp149
g124
F0.6
sg19
S'(0.6, Site name)'
p150
sg23
g24
sbag0
(g138
g2
Ntp151
Rp152
(dp153
g124
F0.8
sg19
S'(0.8, Site name)'
p154
sg23
g24
sbag0
(cdedupe.predicates
TfidfTextCanopyPredicate
p155
g2
Ntp156
Rp157
(dp158
g124
F0.2
sg19
S'(0.2, Site name)'
p159
sg23
g24
sbag0
(g155
g2
Ntp160
Rp161
(dp162
g124
F0.4
sg19
S'(0.4, Site name)'
p163
sg23
g24
sbag0
(g155
g2
Ntp164
Rp165
(dp166
g124
F0.6
sg19
S'(0.6, Site name)'
p167
sg23
g24
sbag0
(g155
g2
Ntp168
Rp169
(dp170
g124
F0.8
sg19
S'(0.8, Site name)'
p171
sg23
g24
sbag0
(cdedupe.predicates
TfidfTextSearchPredicate
p172
g2
Ntp173
Rp174
(dp175
g124
F0.2
sg19
S'(0.2, Site name)'
p176
sg23
g24
sbag0
(g172
g2
Ntp177
Rp178
(dp179
g124
F0.4
sg19
S'(0.4, Site name)'
p180
sg23
g24
sbag0
(g172
g2
Ntp181
Rp182
(dp183
g124
F0.6
sg19
S'(0.6, Site name)'
p184
sg23
g24
sbag0
(g172
g2
Ntp185
Rp186
(dp187
g124
F0.8
sg19
S'(0.8, Site name)'
p188
sg23
g24
sbag0
(cdedupe.predicates
LevenshteinCanopyPredicate
p189
g2
Ntp190
Rp191
(dp192
g124
I1
sg19
S'(1, Site name)'
p193
sg23
g24
sbag0
(g189
g2
Ntp194
Rp195
(dp196
g124
I2
sg19
S'(2, Site name)'
p197
sg23
g24
sbag0
(g189
g2
Ntp198
Rp199
(dp200
g124
I3
sg19
S'(3, Site name)'
p201
sg23
g24
sbag0
(g189
g2
Ntp202
Rp203
(dp204
g124
I4
sg19
S'(4, Site name)'
p205
sg23
g24
sbag0
(cdedupe.predicates
LevenshteinSearchPredicate
p206
g2
Ntp207
Rp208
(dp209
g124
I1
sg19
S'(1, Site name)'
p210
sg23
g24
sbag0
(g206
g2
Ntp211
Rp212
(dp213
g124
I2
sg19
S'(2, Site name)'
p214
sg23
g24
sbag0
(g206
g2
Ntp215
Rp216
(dp217
g124
I3
sg19
S'(3, Site name)'
p218
sg23
g24
sbag0
(g206
g2
Ntp219
Rp220
(dp221
g124
I4
sg19
S'(4, Site name)'
p222
sg23
g24
sbasg23
g24
sS'name'
p223
S'(Site name: String)'
p224
sS'has_missing'
p225
I00
sS'comparator'
p226
caffinegap.affinegap
normalizedAffineGapDistance
p227
sbag0
(g8
g2
Ntp228
Rp229
(dp230
g12
(lp231
g0
(g14
g2
Ntp232
Rp233
(dp234
g18
I-1749210285
sg19
S'(wholeFieldPredicate, Address)'
p235
sg21
g22
sg23
S'Address'
p236
sbag0
(g14
g2
Ntp237
Rp238
(dp239
g18
I-1911416731
sg19
S'(firstTokenPredicate, Address)'
p240
sg21
g29
sg23
g236
sbag0
(g14
g2
Ntp241
Rp242
(dp243
g18
I871804688
sg19
S'(commonIntegerPredicate, Address)'
p244
sg21
g34
sg23
g236
sbag0
(g14
g2
Ntp245
Rp246
(dp247
g18
I-1614965443
sg19
S'(nearIntegersPredicate, Address)'
p248
sg21
g39
sg23
g236
sbag0
(g14
g2
Ntp249
Rp250
(dp251
g18
I-2021577116
sg19
S'(firstIntegerPredicate, Address)'
p252
sg21
g44
sg23
g236
sbag0
(g14
g2
Ntp253
Rp254
(dp255
g18
I210269724
sg19
S'(sameThreeCharStartPredicate, Address)'
p256
sg21
g49
sg23
g236
sbag0
(g14
g2
Ntp257
Rp258
(dp259
g18
I637663747
sg19
S'(sameFiveCharStartPredicate, Address)'
p260
sg21
g54
sg23
g236
sbag0
(g14
g2
Ntp261
Rp262
(dp263
g18
I1266925539
sg19
S'(sameSevenCharStartPredicate, Address)'
p264
sg21
g59
sg23
g236
sbag0
(g14
g2
Ntp265
Rp266
(dp267
g18
I-81859464
sg19
S'(commonTwoTokens, Address)'
p268
sg21
g64
sg23
g236
sbag0
(g14
g2
Ntp269
Rp270
(dp271
g18
I342039744
sg19
S'(commonThreeTokens, Address)'
p272
sg21
g69
sg23
g236
sbag0
(g14
g2
Ntp273
Rp274
(dp275
g18
I-1063153891
sg19
S'(fingerprint, Address)'
p276
sg21
g74
sg23
g236
sbag0
(g14
g2
Ntp277
Rp278
(dp279
g18
I-1961466499
sg19
S'(oneGramFingerprint, Address)'
p280
sg21
g79
sg23
g236
sbag0
(g14
g2
Ntp281
Rp282
(dp283
g18
I2026811647
sg19
S'(twoGramFingerprint, Address)'
p284
sg21
g84
sg23
g236
sbag0
(g14
g2
Ntp285
Rp286
(dp287
g18
I-1349578967
sg19
S'(sortedAcronym, Address)'
p288
sg21
g89
sg23
g236
sbag0
(g14
g2
Ntp289
Rp290
(dp291
g18
I602906800
sg19
S'(commonFourGram, Address)'
p292
sg21
g94
sg23
g236
sbag0
(g14
g2
Ntp293
Rp294
(dp295
g18
I-1793997133
sg19
S'(commonSixGram, Address)'
p296
sg21
g99
sg23
g236
sbag0
(g14
g2
Ntp297
Rp298
(dp299
g18
I1113736805
sg19
S'(tokenFieldPredicate, Address)'
p300
sg21
g104
sg23
g236
sbag0
(g14
g2
Ntp301
Rp302
(dp303
g18
I-1418540053
sg19
S'(suffixArray, Address)'
p304
sg21
g109
sg23
g236
sbag0
(g14
g2
Ntp305
Rp306
(dp307
g18
I-532366627
sg19
S'(doubleMetaphone, Address)'
p308
sg21
g114
sg23
g236
sbag0
(g14
g2
Ntp309
Rp310
(dp311
g18
I325889354
sg19
S'(metaphoneToken, Address)'
p312
sg21
g119
sg23
g236
sbag0
(g120
g2
Ntp313
Rp314
(dp315
g124
F0.2
sg19
S'(0.2, Address)'
p316
sg23
g236
sbag0
(g120
g2
Ntp317
Rp318
(dp319
g124
F0.4
sg19
S'(0.4, Address)'
p320
sg23
g236
sbag0
(g120
g2
Ntp321
Rp322
(dp323
g124
F0.6
sg19
S'(0.6, Address)'
p324
sg23
g236
sbag0
(g120
g2
Ntp325
Rp326
(dp327
g124
F0.8
sg19
S'(0.8, Address)'
p328
sg23
g236
sbag0
(g138
g2
Ntp329
Rp330
(dp331
g124
F0.2
sg19
S'(0.2, Address)'
p332
sg23
g236
sbag0
(g138
g2
Ntp333
Rp334
(dp335
g124
F0.4
sg19
S'(0.4, Address)'
p336
sg23
g236
sbag0
(g138
g2
Ntp337
Rp338
(dp339
g124
F0.6
sg19
S'(0.6, Address)'
p340
sg23
g236
sbag0
(g138
g2
Ntp341
Rp342
(dp343
g124
F0.8
sg19
S'(0.8, Address)'
p344
sg23
g236
sbag0
(g155
g2
Ntp345
Rp346
(dp347
g124
F0.2
sg19
S'(0.2, Address)'
p348
sg23
g236
sbag0
(g155
g2
Ntp349
Rp350
(dp351
g124
F0.4
sg19
S'(0.4, Address)'
p352
sg23
g236
sbag0
(g155
g2
Ntp353
Rp354
(dp355
g124
F0.6
sg19
S'(0.6, Address)'
p356
sg23
g236
sbag0
(g155
g2
Ntp357
Rp358
(dp359
g124
F0.8
sg19
S'(0.8, Address)'
p360
sg23
g236
sbag0
(g172
g2
Ntp361
Rp362
(dp363
g124
F0.2
sg19
S'(0.2, Address)'
p364
sg23
g236
sbag0
(g172
g2
Ntp365
Rp366
(dp367
g124
F0.4
sg19
S'(0.4, Address)'
p368
sg23
g236
sbag0
(g172
g2
Ntp369
Rp370
(dp371
g124
F0.6
sg19
S'(0.6, Address)'
p372
sg23
g236
sbag0
(g172
g2
Ntp373
Rp374
(dp375
g124
F0.8
sg19
S'(0.8, Address)'
p376
sg23
g236
sbag0
(g189
g2
Ntp377
Rp378
(dp379
g124
I1
sg19
S'(1, Address)'
p380
sg23
g236
sbag0
(g189
g2
Ntp381
Rp382
(dp383
g124
I2
sg19
S'(2, Address)'
p384
sg23
g236
sbag0
(g189
g2
Ntp385
Rp386
(dp387
g124
I3
sg19
S'(3, Address)'
p388
sg23
g236
sbag0
(g189
g2
Ntp389
Rp390
(dp391
g124
I4
sg19
S'(4, Address)'
p392
sg23
g236
sbag0
(g206
g2
Ntp393
Rp394
(dp395
g124
I1
sg19
S'(1, Address)'
p396
sg23
g236
sbag0
(g206
g2
Ntp397
Rp398
(dp399
g124
I2
sg19
S'(2, Address)'
p400
sg23
g236
sbag0
(g206
g2
Ntp401
Rp402
(dp403
g124
I3
sg19
S'(3, Address)'
p404
sg23
g236
sbag0
(g206
g2
Ntp405
Rp406
(dp407
g124
I4
sg19
S'(4, Address)'
p408
sg23
g236
sbasg23
g236
sg223
S'(Address: String)'
p409
sg225
I00
sg226
g227
sbag0
(cdedupe.variables.exact
ExactType
p410
g2
Ntp411
Rp412
(dp413
g12
(lp414
g0
(cdedupe.predicates
SimplePredicate
p415
g2
Ntp416
Rp417
(dp418
g18
I-2013814884
sg19
S'(wholeFieldPredicate, Zip)'
p419
sg21
g22
sg23
S'Zip'
p420
sbag0
(cdedupe.predicates
ExistsPredicate
p421
g2
Ntp422
Rp423
(dp424
g18
I1906851099
sg19
S'(Exists, Zip)'
p425
sg23
g420
sbasg23
g420
sg223
S'(Zip: Exact)'
p426
sg225
I01
sbag0
(g8
g2
Ntp427
Rp428
(dp429
g12
(lp430
g0
(g14
g2
Ntp431
Rp432
(dp433
g18
I1894849777
sg19
S'(wholeFieldPredicate, Phone)'
p434
sg21
g22
sg23
S'Phone'
p435
sbag0
(g14
g2
Ntp436
Rp437
(dp438
g18
I-1970341909
sg19
S'(firstTokenPredicate, Phone)'
p439
sg21
g29
sg23
g435
sbag0
(g14
g2
Ntp440
Rp441
(dp442
g18
I1234830494
sg19
S'(commonIntegerPredicate, Phone)'
p443
sg21
g34
sg23
g435
sbag0
(g14
g2
Ntp444
Rp445
(dp446
g18
I-160498237
sg19
S'(nearIntegersPredicate, Phone)'
p447
sg21
g39
sg23
g435
sbag0
(g14
g2
Ntp448
Rp449
(dp450
g18
I-1580568674
sg19
S'(firstIntegerPredicate, Phone)'
p451
sg21
g44
sg23
g435
sbag0
(g14
g2
Ntp452
Rp453
(dp454
g18
I-2076236954
sg19
S'(sameThreeCharStartPredicate, Phone)'
p455
sg21
g49
sg23
g435
sbag0
(g14
g2
Ntp456
Rp457
(dp458
g18
I1031395365
sg19
S'(sameFiveCharStartPredicate, Phone)'
p459
sg21
g54
sg23
g435
sbag0
(g14
g2
Ntp460
Rp461
(dp462
g18
I-939313519
sg19
S'(sameSevenCharStartPredicate, Phone)'
p463
sg21
g59
sg23
g435
sbag0
(g14
g2
Ntp464
Rp465
(dp466
g18
I153514594
sg19
S'(commonTwoTokens, Phone)'
p467
sg21
g64
sg23
g435
sbag0
(g14
g2
Ntp468
Rp469
(dp470
g18
I-888534894
sg19
S'(commonThreeTokens, Phone)'
p471
sg21
g69
sg23
g435
sbag0
(g14
g2
Ntp472
Rp473
(dp474
g18
I425447507
sg19
S'(fingerprint, Phone)'
p475
sg21
g74
sg23
g435
sbag0
(g14
g2
Ntp476
Rp477
(dp478
g18
I-2103123097
sg19
S'(oneGramFingerprint, Phone)'
p479
sg21
g79
sg23
g435
sbag0
(g14
g2
Ntp480
Rp481
(dp482
g18
I572459281
sg19
S'(twoGramFingerprint, Phone)'
p483
sg21
g84
sg23
g435
sbag0
(g14
g2
Ntp484
Rp485
(dp486
g18
I1605354279
sg19
S'(sortedAcronym, Phone)'
p487
sg21
g89
sg23
g435
sbag0
(g14
g2
Ntp488
Rp489
(dp490
g18
I1325541630
sg19
S'(commonFourGram, Phone)'
p491
sg21
g94
sg23
g435
sbag0
(g14
g2
Ntp492
Rp493
(dp494
g18
I522166001
sg19
S'(commonSixGram, Phone)'
p495
sg21
g99
sg23
g435
sbag0
(g14
g2
Ntp496
Rp497
(dp498
g18
I1848653291
sg19
S'(tokenFieldPredicate, Phone)'
p499
sg21
g104
sg23
g435
sbag0
(g14
g2
Ntp500
Rp501
(dp502
g18
I1326219401
sg19
S'(suffixArray, Phone)'
p503
sg21
g109
sg23
g435
sbag0
(g14
g2
Ntp504
Rp505
(dp506
g18
I-437142549
sg19
S'(doubleMetaphone, Phone)'
p507
sg21
g114
sg23
g435
sbag0
(g14
g2
Ntp508
Rp509
(dp510
g18
I1831672392
sg19
S'(metaphoneToken, Phone)'
p511
sg21
g119
sg23
g435
sbag0
(g120
g2
Ntp512
Rp513
(dp514
g124
F0.2
sg19
S'(0.2, Phone)'
p515
sg23
g435
sbag0
(g120
g2
Ntp516
Rp517
(dp518
g124
F0.4
sg19
S'(0.4, Phone)'
p519
sg23
g435
sbag0
(g120
g2
Ntp520
Rp521
(dp522
g124
F0.6
sg19
S'(0.6, Phone)'
p523
sg23
g435
sbag0
(g120
g2
Ntp524
Rp525
(dp526
g124
F0.8
sg19
S'(0.8, Phone)'
p527
sg23
g435
sbag0
(g138
g2
Ntp528
Rp529
(dp530
g124
F0.2
sg19
S'(0.2, Phone)'
p531
sg23
g435
sbag0
(g138
g2
Ntp532
Rp533
(dp534
g124
F0.4
sg19
S'(0.4, Phone)'
p535
sg23
g435
sbag0
(g138
g2
Ntp536
Rp537
(dp538
g124
F0.6
sg19
S'(0.6, Phone)'
p539
sg23
g435
sbag0
(g138
g2
Ntp540
Rp541
(dp542
g124
F0.8
sg19
S'(0.8, Phone)'
p543
sg23
g435
sbag0
(g155
g2
Ntp544
Rp545
(dp546
g124
F0.2
sg19
S'(0.2, Phone)'
p547
sg23
g435
sbag0
(g155
g2
Ntp548
Rp549
(dp550
g124
F0.4
sg19
S'(0.4, Phone)'
p551
sg23
g435
sbag0
(g155
g2
Ntp552
Rp553
(dp554
g124
F0.6
sg19
S'(0.6, Phone)'
p555
sg23
g435
sbag0
(g155
g2
Ntp556
Rp557
(dp558
g124
F0.8
sg19
S'(0.8, Phone)'
p559
sg23
g435
sbag0
(g172
g2
Ntp560
Rp561
(dp562
g124
F0.2
sg19
S'(0.2, Phone)'
p563
sg23
g435
sbag0
(g172
g2
Ntp564
Rp565
(dp566
g124
F0.4
sg19
S'(0.4, Phone)'
p567
sg23
g435
sbag0
(g172
g2
Ntp568
Rp569
(dp570
g124
F0.6
sg19
S'(0.6, Phone)'
p571
sg23
g435
sbag0
(g172
g2
Ntp572
Rp573
(dp574
g124
F0.8
sg19
S'(0.8, Phone)'
p575
sg23
g435
sbag0
(g189
g2
Ntp576
Rp577
(dp578
g124
I1
sg19
S'(1, Phone)'
p579
sg23
g435
sbag0
(g189
g2
Ntp580
Rp581
(dp582
g124
I2
sg19
S'(2, Phone)'
p583
sg23
g435
sbag0
(g189
g2
Ntp584
Rp585
(dp586
g124
I3
sg19
S'(3, Phone)'
p587
sg23
g435
sbag0
(g189
g2
Ntp588
Rp589
(dp590
g124
I4
sg19
S'(4, Phone)'
p591
sg23
g435
sbag0
(g206
g2
Ntp592
Rp593
(dp594
g124
I1
sg19
S'(1, Phone)'
p595
sg23
g435
sbag0
(g206
g2
Ntp596
Rp597
(dp598
g124
I2
sg19
S'(2, Phone)'
p599
sg23
g435
sbag0
(g206
g2
Ntp600
Rp601
(dp602
g124
I3
sg19
S'(3, Phone)'
p603
sg23
g435
sbag0
(g206
g2
Ntp604
Rp605
(dp606
g124
I4
sg19
S'(4, Phone)'
p607
sg23
g435
sbag0
(g421
g2
Ntp608
Rp609
(dp610
g18
I-1199441986
sg19
S'(Exists, Phone)'
p611
sg23
g435
sbasg23
g435
sg223
S'(Phone: String)'
p612
sg225
I01
sg226
g227
sbasS'_variables'
p613
(lp614
g10
ag229
ag412
ag428
ag0
(cdedupe.variables.base
MissingDataType
p615
g2
Ntp616
Rp617
(dp618
g223
S'((Zip: Exact): Not Missing)'
p619
sg225
I00
sbag0
(g615
g2
Ntp620
Rp621
(dp622
g223
S'((Phone: String): Not Missing)'
p623
sg225
I00
sbasS'_missing_field_indices'
p624
(lp625
I2
aI3
asS'_derived_start'
p626
I4
sS'_interaction_indices'
p627
(lp628
sb.ccopy_reg
_reconstructor
p0
(crlr.lr
RegularizedLogisticRegression
p1
c__builtin__
object
p2
Ntp3
Rp4
(dp5
S'alpha'
p6
F0.01
sS'bias'
p7
cnumpy.core.multiarray
scalar
p8
(cnumpy
dtype
p9
(S'f8'
p10
I0
I1
tp11
Rp12
(I3
S'<'
p13
NNNI-1
I-1
I0
tp14
bS'\xfd\xea\x0e\xf8u2\x05@'
p15
tp16
Rp17
sS'num_cores'
p18
I0
sS'cv'
p19
I3
sS'weights'
p20
cnumpy.core.multiarray
_reconstruct
p21
(cnumpy
ndarray
p22
(I0
tp23
S'b'
p24
tp25
Rp26
(I1
(L6L
tp27
g12
I00
S'\x9d\x1e\xf84\xde\x08\xdc\xbfL`\x9d\xf5\x116\x02\xc0su\x9a\xc8\x84\xa2$@\xf2\x92\x1c\x04u\xb0\x01\xc0t\x16\x08\xd9\xcf\xf0\x03\xc0\xfeZ\x80\xb3\\J\x1c@'
p28
tp29
bsb.(ccopy_reg
_reconstructor
p0
(cdedupe.predicates
CompoundPredicate
p1
c__builtin__
tuple
p2
(g0
(cdedupe.predicates
StringPredicate
p3
c__builtin__
object
p4
Ntp5
Rp6
(dp7
S'_cached_hash'
p8
I637663747
sS'__name__'
p9
S'(sameFiveCharStartPredicate, Address)'
p10
sS'func'
p11
cdedupe.predicates
sameFiveCharStartPredicate
p12
sS'field'
p13
S'Address'
p14
sbg0
(cdedupe.predicates
SimplePredicate
p15
g4
Ntp16
Rp17
(dp18
g8
I-2013814884
sg9
S'(wholeFieldPredicate, Zip)'
p19
sg11
cdedupe.predicates
wholeFieldPredicate
p20
sg13
S'Zip'
p21
sbtp22
tp23
Rp24
g0
(g1
g2
(g0
(g3
g4
Ntp25
Rp26
(dp27
g8
I425447507
sg9
S'(fingerprint, Phone)'
p28
sg11
cdedupe.predicates
fingerprint
p29
sg13
S'Phone'
p30
sbg0
(g3
g4
Ntp31
Rp32
(dp33
g8
I572459281
sg9
S'(twoGramFingerprint, Phone)'
p34
sg11
cdedupe.predicates
twoGramFingerprint
p35
sg13
g30
sbtp36
tp37
Rp38
tp39
.