ccopy_reg
_reconstructor
p0
(cdedupe.datamodel
DataModel
p1
c__builtin__
object
p2
Ntp3
Rp4
(dp5
S'primary_fields'
p6
(lp7
g0
(cdedupe.variables.string
StringType
p8
g2
Ntp9
Rp10
(dp11
S'predicates'
p12
(lp13
g0
(cdedupe.predicates
StringPredicate
p14
g2
Ntp15
Rp16
(dp17
S'_cached_hash'
p18
I-1948419031
sS'__name__'
p19
S'(wholeFieldPredicate, init_name)'
p20
sS'func'
p21
cdedupe.predicates
wholeFieldPredicate
p22
sS'field'
p23
S'init_name'
p24
sbag0
(g14
g2
Ntp25
Rp26
(dp27
g18
I-1960134505
sg19
S'(firstTokenPredicate, init_name)'
p28
sg21
cdedupe.predicates
firstTokenPredicate
p29
sg23
g24
sbag0
(g14
g2
Ntp30
Rp31
(dp32
g18
I-1533663318
sg19
S'(commonIntegerPredicate, init_name)'
p33
sg21
cdedupe.predicates
commonIntegerPredicate
p34
sg23
g24
sbag0
(g14
g2
Ntp35
Rp36
(dp37
g18
I-1927580997
sg19
S'(nearIntegersPredicate, init_name)'
p38
sg21
cdedupe.predicates
nearIntegersPredicate
p39
sg23
g24
sbag0
(g14
g2
Ntp40
Rp41
(dp42
g18
I398604482
sg19
S'(firstIntegerPredicate, init_name)'
p43
sg21
cdedupe.predicates
firstIntegerPredicate
p44
sg23
g24
sbag0
(g14
g2
Ntp45
Rp46
(dp47
g18
I1855346686
sg19
S'(sameThreeCharStartPredicate, init_name)'
p48
sg21
cdedupe.predicates
sameThreeCharStartPredicate
p49
sg23
g24
sbag0
(g14
g2
Ntp50
Rp51
(dp52
g18
I1918151529
sg19
S'(sameFiveCharStartPredicate, init_name)'
p53
sg21
cdedupe.predicates
sameFiveCharStartPredicate
p54
sg23
g24
sbag0
(g14
g2
Ntp55
Rp56
(dp57
g18
I-1923218583
sg19
S'(sameSevenCharStartPredicate, init_name)'
p58
sg21
cdedupe.predicates
sameSevenCharStartPredicate
p59
sg23
g24
sbag0
(g14
g2
Ntp60
Rp61
(dp62
g18
I65347266
sg19
S'(commonTwoTokens, init_name)'
p63
sg21
cdedupe.predicates
commonTwoTokens
p64
sg23
g24
sbag0
(g14
g2
Ntp65
Rp66
(dp67
g18
I-2076635098
sg19
S'(commonThreeTokens, init_name)'
p68
sg21
cdedupe.predicates
commonThreeTokens
p69
sg23
g24
sbag0
(g14
g2
Ntp70
Rp71
(dp72
g18
I1432369183
sg19
S'(fingerprint, init_name)'
p73
sg21
cdedupe.predicates
fingerprint
p74
sg23
g24
sbag0
(g14
g2
Ntp75
Rp76
(dp77
g18
I-729161761
sg19
S'(oneGramFingerprint, init_name)'
p78
sg21
cdedupe.predicates
oneGramFingerprint
p79
sg23
g24
sbag0
(g14
g2
Ntp80
Rp81
(dp82
g18
I-811611131
sg19
S'(twoGramFingerprint, init_name)'
p83
sg21
cdedupe.predicates
twoGramFingerprint
p84
sg23
g24
sbag0
(g14
g2
Ntp85
Rp86
(dp87
g18
I1234626079
sg19
S'(sortedAcronym, init_name)'
p88
sg21
cdedupe.predicates
sortedAcronym
p89
sg23
g24
sbag0
(g14
g2
Ntp90
Rp91
(dp92
g18
I1742000570
sg19
S'(commonFourGram, init_name)'
p93
sg21
cdedupe.predicates
commonFourGram
p94
sg23
g24
sbag0
(g14
g2
Ntp95
Rp96
(dp97
g18
I-462870595
sg19
S'(commonSixGram, init_name)'
p98
sg21
cdedupe.predicates
commonSixGram
p99
sg23
g24
sbag0
(g14
g2
Ntp100
Rp101
(dp102
g18
I910775959
sg19
S'(tokenFieldPredicate, init_name)'
p103
sg21
cdedupe.predicates
tokenFieldPredicate
p104
sg23
g24
sbag0
(g14
g2
Ntp105
Rp106
(dp107
g18
I1766232161
sg19
S'(suffixArray, init_name)'
p108
sg21
cdedupe.predicates
suffixArray
p109
sg23
g24
sbag0
(g14
g2
Ntp110
Rp111
(dp112
g18
I2109623943
sg19
S'(doubleMetaphone, init_name)'
p113
sg21
cdedupe.predicates
doubleMetaphone
p114
sg23
g24
sbag0
(g14
g2
Ntp115
Rp116
(dp117
g18
I1884469432
sg19
S'(metaphoneToken, init_name)'
p118
sg21
cdedupe.predicates
metaphoneToken
p119
sg23
g24
sbag0
(cdedupe.predicates
TfidfNGramCanopyPredicate
p120
g2
Ntp121
Rp122
(dp123
S'threshold'
p124
F0.2
sg19
S'(0.2, init_name)'
p125
sg23
g24
sbag0
(g120
g2
Ntp126
Rp127
(dp128
g124
F0.4
sg19
S'(0.4, init_name)'
p129
sg23
g24
sbag0
(g120
g2
Ntp130
Rp131
(dp132
g124
F0.6
sg19
S'(0.6, init_name)'
p133
sg23
g24
sbag0
(g120
g2
Ntp134
Rp135
(dp136
g124
F0.8
sg19
S'(0.8, init_name)'
p137
sg23
g24
sbag0
(cdedupe.predicates
TfidfNGramSearchPredicate
p138
g2
Ntp139
Rp140
(dp141
g124
F0.2
sg19
S'(0.2, init_name)'
p142
sg23
g24
sbag0
(g138
g2
Ntp143
Rp144
(dp145
g124
F0.4
sg19
S'(0.4, init_name)'
p146
sg23
g24
sbag0
(g138
g2
Ntp147
Rp148
(dp149
g124
F0.6
sg19
S'(0.6, init_name)'
p150
sg23
g24
sbag0
(g138
g2
Ntp151
Rp152
(dp153
g124
F0.8
sg19
S'(0.8, init_name)'
p154
sg23
g24
sbag0
(cdedupe.predicates
TfidfTextCanopyPredicate
p155
g2
Ntp156
Rp157
(dp158
g124
F0.2
sg19
S'(0.2, init_name)'
p159
sg23
g24
sbag0
(g155
g2
Ntp160
Rp161
(dp162
g124
F0.4
sg19
S'(0.4, init_name)'
p163
sg23
g24
sbag0
(g155
g2
Ntp164
Rp165
(dp166
g124
F0.6
sg19
S'(0.6, init_name)'
p167
sg23
g24
sbag0
(g155
g2
Ntp168
Rp169
(dp170
g124
F0.8
sg19
S'(0.8, init_name)'
p171
sg23
g24
sbag0
(cdedupe.predicates
TfidfTextSearchPredicate
p172
g2
Ntp173
Rp174
(dp175
g124
F0.2
sg19
S'(0.2, init_name)'
p176
sg23
g24
sbag0
(g172
g2
Ntp177
Rp178
(dp179
g124
F0.4
sg19
S'(0.4, init_name)'
p180
sg23
g24
sbag0
(g172
g2
Ntp181
Rp182
(dp183
g124
F0.6
sg19
S'(0.6, init_name)'
p184
sg23
g24
sbag0
(g172
g2
Ntp185
Rp186
(dp187
g124
F0.8
sg19
S'(0.8, init_name)'
p188
sg23
g24
sbag0
(cdedupe.predicates
LevenshteinCanopyPredicate
p189
g2
Ntp190
Rp191
(dp192
g124
I1
sg19
S'(1, init_name)'
p193
sg23
g24
sbag0
(g189
g2
Ntp194
Rp195
(dp196
g124
I2
sg19
S'(2, init_name)'
p197
sg23
g24
sbag0
(g189
g2
Ntp198
Rp199
(dp200
g124
I3
sg19
S'(3, init_name)'
p201
sg23
g24
sbag0
(g189
g2
Ntp202
Rp203
(dp204
g124
I4
sg19
S'(4, init_name)'
p205
sg23
g24
sbag0
(cdedupe.predicates
LevenshteinSearchPredicate
p206
g2
Ntp207
Rp208
(dp209
g124
I1
sg19
S'(1, init_name)'
p210
sg23
g24
sbag0
(g206
g2
Ntp211
Rp212
(dp213
g124
I2
sg19
S'(2, init_name)'
p214
sg23
g24
sbag0
(g206
g2
Ntp215
Rp216
(dp217
g124
I3
sg19
S'(3, init_name)'
p218
sg23
g24
sbag0
(g206
g2
Ntp219
Rp220
(dp221
g124
I4
sg19
S'(4, init_name)'
p222
sg23
g24
sbasg23
g24
sS'name'
p223
S'(init_name: String)'
p224
sS'has_missing'
p225
I00
sS'comparator'
p226
caffinegap.affinegap
normalizedAffineGapDistance
p227
sbag0
(g8
g2
Ntp228
Rp229
(dp230
g12
(lp231
g0
(g14
g2
Ntp232
Rp233
(dp234
g18
I-432678596
sg19
S'(wholeFieldPredicate, full_name)'
p235
sg21
g22
sg23
S'full_name'
p236
sbag0
(g14
g2
Ntp237
Rp238
(dp239
g18
I-11356390
sg19
S'(firstTokenPredicate, full_name)'
p240
sg21
g29
sg23
g236
sbag0
(g14
g2
Ntp241
Rp242
(dp243
g18
I-1371756985
sg19
S'(commonIntegerPredicate, full_name)'
p244
sg21
g34
sg23
g236
sbag0
(g14
g2
Ntp245
Rp246
(dp247
g18
I-378171762
sg19
S'(nearIntegersPredicate, full_name)'
p248
sg21
g39
sg23
g236
sbag0
(g14
g2
Ntp249
Rp250
(dp251
g18
I-1238449973
sg19
S'(firstIntegerPredicate, full_name)'
p252
sg21
g44
sg23
g236
sbag0
(g14
g2
Ntp253
Rp254
(dp255
g18
I-2119349025
sg19
S'(sameThreeCharStartPredicate, full_name)'
p256
sg21
g49
sg23
g236
sbag0
(g14
g2
Ntp257
Rp258
(dp259
g18
I34899040
sg19
S'(sameFiveCharStartPredicate, full_name)'
p260
sg21
g54
sg23
g236
sbag0
(g14
g2
Ntp261
Rp262
(dp263
g18
I-18048692
sg19
S'(sameSevenCharStartPredicate, full_name)'
p264
sg21
g59
sg23
g236
sbag0
(g14
g2
Ntp265
Rp266
(dp267
g18
I1526436371
sg19
S'(commonTwoTokens, full_name)'
p268
sg21
g64
sg23
g236
sbag0
(g14
g2
Ntp269
Rp270
(dp271
g18
I-186711569
sg19
S'(commonThreeTokens, full_name)'
p272
sg21
g69
sg23
g236
sbag0
(g14
g2
Ntp273
Rp274
(dp275
g18
I-297521198
sg19
S'(fingerprint, full_name)'
p276
sg21
g74
sg23
g236
sbag0
(g14
g2
Ntp277
Rp278
(dp279
g18
I731927310
sg19
S'(oneGramFingerprint, full_name)'
p280
sg21
g79
sg23
g236
sbag0
(g14
g2
Ntp281
Rp282
(dp283
g18
I819816364
sg19
S'(twoGramFingerprint, full_name)'
p284
sg21
g84
sg23
g236
sbag0
(g14
g2
Ntp285
Rp286
(dp287
g18
I321925618
sg19
S'(sortedAcronym, full_name)'
p288
sg21
g89
sg23
g236
sbag0
(g14
g2
Ntp289
Rp290
(dp291
g18
I-1032490889
sg19
S'(commonFourGram, full_name)'
p292
sg21
g94
sg23
g236
sbag0
(g14
g2
Ntp293
Rp294
(dp295
g18
I1057605232
sg19
S'(commonSixGram, full_name)'
p296
sg21
g99
sg23
g236
sbag0
(g14
g2
Ntp297
Rp298
(dp299
g18
I-1435413222
sg19
S'(tokenFieldPredicate, full_name)'
p300
sg21
g104
sg23
g236
sbag0
(g14
g2
Ntp301
Rp302
(dp303
g18
I-2011974316
sg19
S'(suffixArray, full_name)'
p304
sg21
g109
sg23
g236
sbag0
(g14
g2
Ntp305
Rp306
(dp307
g18
I-503363246
sg19
S'(doubleMetaphone, full_name)'
p308
sg21
g114
sg23
g236
sbag0
(g14
g2
Ntp309
Rp310
(dp311
g18
I-1117904107
sg19
S'(metaphoneToken, full_name)'
p312
sg21
g119
sg23
g236
sbag0
(g120
g2
Ntp313
Rp314
(dp315
g124
F0.2
sg19
S'(0.2, full_name)'
p316
sg23
g236
sbag0
(g120
g2
Ntp317
Rp318
(dp319
g124
F0.4
sg19
S'(0.4, full_name)'
p320
sg23
g236
sbag0
(g120
g2
Ntp321
Rp322
(dp323
g124
F0.6
sg19
S'(0.6, full_name)'
p324
sg23
g236
sbag0
(g120
g2
Ntp325
Rp326
(dp327
g124
F0.8
sg19
S'(0.8, full_name)'
p328
sg23
g236
sbag0
(g138
g2
Ntp329
Rp330
(dp331
g124
F0.2
sg19
S'(0.2, full_name)'
p332
sg23
g236
sbag0
(g138
g2
Ntp333
Rp334
(dp335
g124
F0.4
sg19
S'(0.4, full_name)'
p336
sg23
g236
sbag0
(g138
g2
Ntp337
Rp338
(dp339
g124
F0.6
sg19
S'(0.6, full_name)'
p340
sg23
g236
sbag0
(g138
g2
Ntp341
Rp342
(dp343
g124
F0.8
sg19
S'(0.8, full_name)'
p344
sg23
g236
sbag0
(g155
g2
Ntp345
Rp346
(dp347
g124
F0.2
sg19
S'(0.2, full_name)'
p348
sg23
g236
sbag0
(g155
g2
Ntp349
Rp350
(dp351
g124
F0.4
sg19
S'(0.4, full_name)'
p352
sg23
g236
sbag0
(g155
g2
Ntp353
Rp354
(dp355
g124
F0.6
sg19
S'(0.6, full_name)'
p356
sg23
g236
sbag0
(g155
g2
Ntp357
Rp358
(dp359
g124
F0.8
sg19
S'(0.8, full_name)'
p360
sg23
g236
sbag0
(g172
g2
Ntp361
Rp362
(dp363
g124
F0.2
sg19
S'(0.2, full_name)'
p364
sg23
g236
sbag0
(g172
g2
Ntp365
Rp366
(dp367
g124
F0.4
sg19
S'(0.4, full_name)'
p368
sg23
g236
sbag0
(g172
g2
Ntp369
Rp370
(dp371
g124
F0.6
sg19
S'(0.6, full_name)'
p372
sg23
g236
sbag0
(g172
g2
Ntp373
Rp374
(dp375
g124
F0.8
sg19
S'(0.8, full_name)'
p376
sg23
g236
sbag0
(g189
g2
Ntp377
Rp378
(dp379
g124
I1
sg19
S'(1, full_name)'
p380
sg23
g236
sbag0
(g189
g2
Ntp381
Rp382
(dp383
g124
I2
sg19
S'(2, full_name)'
p384
sg23
g236
sbag0
(g189
g2
Ntp385
Rp386
(dp387
g124
I3
sg19
S'(3, full_name)'
p388
sg23
g236
sbag0
(g189
g2
Ntp389
Rp390
(dp391
g124
I4
sg19
S'(4, full_name)'
p392
sg23
g236
sbag0
(g206
g2
Ntp393
Rp394
(dp395
g124
I1
sg19
S'(1, full_name)'
p396
sg23
g236
sbag0
(g206
g2
Ntp397
Rp398
(dp399
g124
I2
sg19
S'(2, full_name)'
p400
sg23
g236
sbag0
(g206
g2
Ntp401
Rp402
(dp403
g124
I3
sg19
S'(3, full_name)'
p404
sg23
g236
sbag0
(g206
g2
Ntp405
Rp406
(dp407
g124
I4
sg19
S'(4, full_name)'
p408
sg23
g236
sbasg23
g236
sg223
S'(full_name: String)'
p409
sg225
I00
sg226
g227
sbag0
(g8
g2
Ntp410
Rp411
(dp412
g12
(lp413
g0
(g14
g2
Ntp414
Rp415
(dp416
g18
I1060823469
sg19
S'(wholeFieldPredicate, affiliation)'
p417
sg21
g22
sg23
S'affiliation'
p418
sbag0
(g14
g2
Ntp419
Rp420
(dp421
g18
I-1466086765
sg19
S'(firstTokenPredicate, affiliation)'
p422
sg21
g29
sg23
g418
sbag0
(g14
g2
Ntp423
Rp424
(dp425
g18
I-216991954
sg19
S'(commonIntegerPredicate, affiliation)'
p426
sg21
g34
sg23
g418
sbag0
(g14
g2
Ntp427
Rp428
(dp429
g18
I-486961573
sg19
S'(nearIntegersPredicate, affiliation)'
p430
sg21
g39
sg23
g418
sbag0
(g14
g2
Ntp431
Rp432
(dp433
g18
I1786197982
sg19
S'(firstIntegerPredicate, affiliation)'
p434
sg21
g44
sg23
g418
sbag0
(g14
g2
Ntp435
Rp436
(dp437
g18
I-82718450
sg19
S'(sameThreeCharStartPredicate, affiliation)'
p438
sg21
g49
sg23
g418
sbag0
(g14
g2
Ntp439
Rp440
(dp441
g18
I-14971727
sg19
S'(sameFiveCharStartPredicate, affiliation)'
p442
sg21
g54
sg23
g418
sbag0
(g14
g2
Ntp443
Rp444
(dp445
g18
I754600333
sg19
S'(sameSevenCharStartPredicate, affiliation)'
p446
sg21
g59
sg23
g418
sbag0
(g14
g2
Ntp447
Rp448
(dp449
g18
I-706249966
sg19
S'(commonTwoTokens, affiliation)'
p450
sg21
g64
sg23
g418
sbag0
(g14
g2
Ntp451
Rp452
(dp453
g18
I1109022130
sg19
S'(commonThreeTokens, affiliation)'
p454
sg21
g69
sg23
g418
sbag0
(g14
g2
Ntp455
Rp456
(dp457
g18
I-2016003077
sg19
S'(fingerprint, affiliation)'
p458
sg21
g74
sg23
g418
sbag0
(g14
g2
Ntp459
Rp460
(dp461
g18
I-2005941233
sg19
S'(oneGramFingerprint, affiliation)'
p462
sg21
g79
sg23
g418
sbag0
(g14
g2
Ntp463
Rp464
(dp465
g18
I-1380930323
sg19
S'(twoGramFingerprint, affiliation)'
p466
sg21
g84
sg23
g418
sbag0
(g14
g2
Ntp467
Rp468
(dp469
g18
I511877127
sg19
S'(sortedAcronym, affiliation)'
p470
sg21
g89
sg23
g418
sbag0
(g14
g2
Ntp471
Rp472
(dp473
g18
I1658833758
sg19
S'(commonFourGram, affiliation)'
p474
sg21
g94
sg23
g418
sbag0
(g14
g2
Ntp475
Rp476
(dp477
g18
I117428573
sg19
S'(commonSixGram, affiliation)'
p478
sg21
g99
sg23
g418
sbag0
(g14
g2
Ntp479
Rp480
(dp481
g18
I48617619
sg19
S'(tokenFieldPredicate, affiliation)'
p482
sg21
g104
sg23
g418
sbag0
(g14
g2
Ntp483
Rp484
(dp485
g18
I-2115570683
sg19
S'(suffixArray, affiliation)'
p486
sg21
g109
sg23
g418
sbag0
(g14
g2
Ntp487
Rp488
(dp489
g18
I-128182021
sg19
S'(doubleMetaphone, affiliation)'
p490
sg21
g114
sg23
g418
sbag0
(g14
g2
Ntp491
Rp492
(dp493
g18
I-1240303132
sg19
S'(metaphoneToken, affiliation)'
p494
sg21
g119
sg23
g418
sbag0
(g120
g2
Ntp495
Rp496
(dp497
g124
F0.2
sg19
S'(0.2, affiliation)'
p498
sg23
g418
sbag0
(g120
g2
Ntp499
Rp500
(dp501
g124
F0.4
sg19
S'(0.4, affiliation)'
p502
sg23
g418
sbag0
(g120
g2
Ntp503
Rp504
(dp505
g124
F0.6
sg19
S'(0.6, affiliation)'
p506
sg23
g418
sbag0
(g120
g2
Ntp507
Rp508
(dp509
g124
F0.8
sg19
S'(0.8, affiliation)'
p510
sg23
g418
sbag0
(g138
g2
Ntp511
Rp512
(dp513
g124
F0.2
sg19
S'(0.2, affiliation)'
p514
sg23
g418
sbag0
(g138
g2
Ntp515
Rp516
(dp517
g124
F0.4
sg19
S'(0.4, affiliation)'
p518
sg23
g418
sbag0
(g138
g2
Ntp519
Rp520
(dp521
g124
F0.6
sg19
S'(0.6, affiliation)'
p522
sg23
g418
sbag0
(g138
g2
Ntp523
Rp524
(dp525
g124
F0.8
sg19
S'(0.8, affiliation)'
p526
sg23
g418
sbag0
(g155
g2
Ntp527
Rp528
(dp529
g124
F0.2
sg19
S'(0.2, affiliation)'
p530
sg23
g418
sbag0
(g155
g2
Ntp531
Rp532
(dp533
g124
F0.4
sg19
S'(0.4, affiliation)'
p534
sg23
g418
sbag0
(g155
g2
Ntp535
Rp536
(dp537
g124
F0.6
sg19
S'(0.6, affiliation)'
p538
sg23
g418
sbag0
(g155
g2
Ntp539
Rp540
(dp541
g124
F0.8
sg19
S'(0.8, affiliation)'
p542
sg23
g418
sbag0
(g172
g2
Ntp543
Rp544
(dp545
g124
F0.2
sg19
S'(0.2, affiliation)'
p546
sg23
g418
sbag0
(g172
g2
Ntp547
Rp548
(dp549
g124
F0.4
sg19
S'(0.4, affiliation)'
p550
sg23
g418
sbag0
(g172
g2
Ntp551
Rp552
(dp553
g124
F0.6
sg19
S'(0.6, affiliation)'
p554
sg23
g418
sbag0
(g172
g2
Ntp555
Rp556
(dp557
g124
F0.8
sg19
S'(0.8, affiliation)'
p558
sg23
g418
sbag0
(g189
g2
Ntp559
Rp560
(dp561
g124
I1
sg19
S'(1, affiliation)'
p562
sg23
g418
sbag0
(g189
g2
Ntp563
Rp564
(dp565
g124
I2
sg19
S'(2, affiliation)'
p566
sg23
g418
sbag0
(g189
g2
Ntp567
Rp568
(dp569
g124
I3
sg19
S'(3, affiliation)'
p570
sg23
g418
sbag0
(g189
g2
Ntp571
Rp572
(dp573
g124
I4
sg19
S'(4, affiliation)'
p574
sg23
g418
sbag0
(g206
g2
Ntp575
Rp576
(dp577
g124
I1
sg19
S'(1, affiliation)'
p578
sg23
g418
sbag0
(g206
g2
Ntp579
Rp580
(dp581
g124
I2
sg19
S'(2, affiliation)'
p582
sg23
g418
sbag0
(g206
g2
Ntp583
Rp584
(dp585
g124
I3
sg19
S'(3, affiliation)'
p586
sg23
g418
sbag0
(g206
g2
Ntp587
Rp588
(dp589
g124
I4
sg19
S'(4, affiliation)'
p590
sg23
g418
sbag0
(cdedupe.predicates
ExistsPredicate
p591
g2
Ntp592
Rp593
(dp594
g18
I-1258986130
sg19
S'(Exists, affiliation)'
p595
sg23
g418
sbasg23
g418
sg223
S'(affiliation: String)'
p596
sg225
I01
sg226
g227
sbag0
(g8
g2
Ntp597
Rp598
(dp599
g12
(lp600
g0
(g14
g2
Ntp601
Rp602
(dp603
g18
I-933240547
sg19
S'(wholeFieldPredicate, city)'
p604
sg21
g22
sg23
S'city'
p605
sbag0
(g14
g2
Ntp606
Rp607
(dp608
g18
I676910839
sg19
S'(firstTokenPredicate, city)'
p609
sg21
g29
sg23
g605
sbag0
(g14
g2
Ntp610
Rp611
(dp612
g18
I1090834444
sg19
S'(commonIntegerPredicate, city)'
p613
sg21
g34
sg23
g605
sbag0
(g14
g2
Ntp614
Rp615
(dp616
g18
I-913075537
sg19
S'(nearIntegersPredicate, city)'
p617
sg21
g39
sg23
g605
sbag0
(g14
g2
Ntp618
Rp619
(dp620
g18
I1423378980
sg19
S'(firstIntegerPredicate, city)'
p621
sg21
g44
sg23
g605
sbag0
(g14
g2
Ntp622
Rp623
(dp624
g18
I758752528
sg19
S'(sameThreeCharStartPredicate, city)'
p625
sg21
g49
sg23
g605
sbag0
(g14
g2
Ntp626
Rp627
(dp628
g18
I-952518759
sg19
S'(sameFiveCharStartPredicate, city)'
p629
sg21
g54
sg23
g605
sbag0
(g14
g2
Ntp630
Rp631
(dp632
g18
I53879309
sg19
S'(sameSevenCharStartPredicate, city)'
p633
sg21
g59
sg23
g605
sbag0
(g14
g2
Ntp634
Rp635
(dp636
g18
I-1320808108
sg19
S'(commonTwoTokens, city)'
p637
sg21
g64
sg23
g605
sbag0
(g14
g2
Ntp638
Rp639
(dp640
g18
I1086287096
sg19
S'(commonThreeTokens, city)'
p641
sg21
g69
sg23
g605
sbag0
(g14
g2
Ntp642
Rp643
(dp644
g18
I-1120176145
sg19
S'(fingerprint, city)'
p645
sg21
g74
sg23
g605
sbag0
(g14
g2
Ntp646
Rp647
(dp648
g18
I2048478295
sg19
S'(oneGramFingerprint, city)'
p649
sg21
g79
sg23
g605
sbag0
(g14
g2
Ntp650
Rp651
(dp652
g18
I-560685851
sg19
S'(twoGramFingerprint, city)'
p653
sg21
g84
sg23
g605
sbag0
(g14
g2
Ntp654
Rp655
(dp656
g18
I184292267
sg19
S'(sortedAcronym, city)'
p657
sg21
g89
sg23
g605
sbag0
(g14
g2
Ntp658
Rp659
(dp660
g18
I-1320074292
sg19
S'(commonFourGram, city)'
p661
sg21
g94
sg23
g605
sbag0
(g14
g2
Ntp662
Rp663
(dp664
g18
I-593652275
sg19
S'(commonSixGram, city)'
p665
sg21
g99
sg23
g605
sbag0
(g14
g2
Ntp666
Rp667
(dp668
g18
I-1979072265
sg19
S'(tokenFieldPredicate, city)'
p669
sg21
g104
sg23
g605
sbag0
(g14
g2
Ntp670
Rp671
(dp672
g18
I1413308517
sg19
S'(suffixArray, city)'
p673
sg21
g109
sg23
g605
sbag0
(g14
g2
Ntp674
Rp675
(dp676
g18
I1248159799
sg19
S'(doubleMetaphone, city)'
p677
sg21
g114
sg23
g605
sbag0
(g14
g2
Ntp678
Rp679
(dp680
g18
I188524298
sg19
S'(metaphoneToken, city)'
p681
sg21
g119
sg23
g605
sbag0
(g120
g2
Ntp682
Rp683
(dp684
g124
F0.2
sg19
S'(0.2, city)'
p685
sg23
g605
sbag0
(g120
g2
Ntp686
Rp687
(dp688
g124
F0.4
sg19
S'(0.4, city)'
p689
sg23
g605
sbag0
(g120
g2
Ntp690
Rp691
(dp692
g124
F0.6
sg19
S'(0.6, city)'
p693
sg23
g605
sbag0
(g120
g2
Ntp694
Rp695
(dp696
g124
F0.8
sg19
S'(0.8, city)'
p697
sg23
g605
sbag0
(g138
g2
Ntp698
Rp699
(dp700
g124
F0.2
sg19
S'(0.2, city)'
p701
sg23
g605
sbag0
(g138
g2
Ntp702
Rp703
(dp704
g124
F0.4
sg19
S'(0.4, city)'
p705
sg23
g605
sbag0
(g138
g2
Ntp706
Rp707
(dp708
g124
F0.6
sg19
S'(0.6, city)'
p709
sg23
g605
sbag0
(g138
g2
Ntp710
Rp711
(dp712
g124
F0.8
sg19
S'(0.8, city)'
p713
sg23
g605
sbag0
(g155
g2
Ntp714
Rp715
(dp716
g124
F0.2
sg19
S'(0.2, city)'
p717
sg23
g605
sbag0
(g155
g2
Ntp718
Rp719
(dp720
g124
F0.4
sg19
S'(0.4, city)'
p721
sg23
g605
sbag0
(g155
g2
Ntp722
Rp723
(dp724
g124
F0.6
sg19
S'(0.6, city)'
p725
sg23
g605
sbag0
(g155
g2
Ntp726
Rp727
(dp728
g124
F0.8
sg19
S'(0.8, city)'
p729
sg23
g605
sbag0
(g172
g2
Ntp730
Rp731
(dp732
g124
F0.2
sg19
S'(0.2, city)'
p733
sg23
g605
sbag0
(g172
g2
Ntp734
Rp735
(dp736
g124
F0.4
sg19
S'(0.4, city)'
p737
sg23
g605
sbag0
(g172
g2
Ntp738
Rp739
(dp740
g124
F0.6
sg19
S'(0.6, city)'
p741
sg23
g605
sbag0
(g172
g2
Ntp742
Rp743
(dp744
g124
F0.8
sg19
S'(0.8, city)'
p745
sg23
g605
sbag0
(g189
g2
Ntp746
Rp747
(dp748
g124
I1
sg19
S'(1, city)'
p749
sg23
g605
sbag0
(g189
g2
Ntp750
Rp751
(dp752
g124
I2
sg19
S'(2, city)'
p753
sg23
g605
sbag0
(g189
g2
Ntp754
Rp755
(dp756
g124
I3
sg19
S'(3, city)'
p757
sg23
g605
sbag0
(g189
g2
Ntp758
Rp759
(dp760
g124
I4
sg19
S'(4, city)'
p761
sg23
g605
sbag0
(g206
g2
Ntp762
Rp763
(dp764
g124
I1
sg19
S'(1, city)'
p765
sg23
g605
sbag0
(g206
g2
Ntp766
Rp767
(dp768
g124
I2
sg19
S'(2, city)'
p769
sg23
g605
sbag0
(g206
g2
Ntp770
Rp771
(dp772
g124
I3
sg19
S'(3, city)'
p773
sg23
g605
sbag0
(g206
g2
Ntp774
Rp775
(dp776
g124
I4
sg19
S'(4, city)'
p777
sg23
g605
sbag0
(g591
g2
Ntp778
Rp779
(dp780
g18
I-1167139060
sg19
S'(Exists, city)'
p781
sg23
g605
sbasg23
g605
sg223
S'(city: String)'
p782
sg225
I01
sg226
g227
sbag0
(g8
g2
Ntp783
Rp784
(dp785
g12
(lp786
g0
(g14
g2
Ntp787
Rp788
(dp789
g18
I-1265868095
sg19
S'(wholeFieldPredicate, country)'
p790
sg21
g22
sg23
S'country'
p791
sbag0
(g14
g2
Ntp792
Rp793
(dp794
g18
I-751683737
sg19
S'(firstTokenPredicate, country)'
p795
sg21
g29
sg23
g791
sbag0
(g14
g2
Ntp796
Rp797
(dp798
g18
I1942705570
sg19
S'(commonIntegerPredicate, country)'
p799
sg21
g34
sg23
g791
sbag0
(g14
g2
Ntp800
Rp801
(dp802
g18
I-1886525521
sg19
S'(nearIntegersPredicate, country)'
p803
sg21
g39
sg23
g791
sbag0
(g14
g2
Ntp804
Rp805
(dp806
g18
I-465374234
sg19
S'(firstIntegerPredicate, country)'
p807
sg21
g44
sg23
g791
sbag0
(g14
g2
Ntp808
Rp809
(dp810
g18
I150876430
sg19
S'(sameThreeCharStartPredicate, country)'
p811
sg21
g49
sg23
g791
sbag0
(g14
g2
Ntp812
Rp813
(dp814
g18
I1365614017
sg19
S'(sameFiveCharStartPredicate, country)'
p815
sg21
g54
sg23
g791
sbag0
(g14
g2
Ntp816
Rp817
(dp818
g18
I-2098623871
sg19
S'(sameSevenCharStartPredicate, country)'
p819
sg21
g59
sg23
g791
sbag0
(g14
g2
Ntp820
Rp821
(dp822
g18
I-1960406086
sg19
S'(commonTwoTokens, country)'
p823
sg21
g64
sg23
g791
sbag0
(g14
g2
Ntp824
Rp825
(dp826
g18
I-167196494
sg19
S'(commonThreeTokens, country)'
p827
sg21
g69
sg23
g791
sbag0
(g14
g2
Ntp828
Rp829
(dp830
g18
I631954495
sg19
S'(fingerprint, country)'
p831
sg21
g74
sg23
g791
sbag0
(g14
g2
Ntp832
Rp833
(dp834
g18
I454954175
sg19
S'(oneGramFingerprint, country)'
p835
sg21
g79
sg23
g791
sbag0
(g14
g2
Ntp836
Rp837
(dp838
g18
I762606533
sg19
S'(twoGramFingerprint, country)'
p839
sg21
g84
sg23
g791
sbag0
(g14
g2
Ntp840
Rp841
(dp842
g18
I-271823885
sg19
S'(sortedAcronym, country)'
p843
sg21
g89
sg23
g791
sbag0
(g14
g2
Ntp844
Rp845
(dp846
g18
I-1147470702
sg19
S'(commonFourGram, country)'
p847
sg21
g94
sg23
g791
sbag0
(g14
g2
Ntp848
Rp849
(dp850
g18
I750592657
sg19
S'(commonSixGram, country)'
p851
sg21
g99
sg23
g791
sbag0
(g14
g2
Ntp852
Rp853
(dp854
g18
I-2021497497
sg19
S'(tokenFieldPredicate, country)'
p855
sg21
g104
sg23
g791
sbag0
(g14
g2
Ntp856
Rp857
(dp858
g18
I1856622457
sg19
S'(suffixArray, country)'
p859
sg21
g109
sg23
g791
sbag0
(g14
g2
Ntp860
Rp861
(dp862
g18
I-1720307865
sg19
S'(doubleMetaphone, country)'
p863
sg21
g114
sg23
g791
sbag0
(g14
g2
Ntp864
Rp865
(dp866
g18
I-1796164912
sg19
S'(metaphoneToken, country)'
p867
sg21
g119
sg23
g791
sbag0
(g120
g2
Ntp868
Rp869
(dp870
g124
F0.2
sg19
S'(0.2, country)'
p871
sg23
g791
sbag0
(g120
g2
Ntp872
Rp873
(dp874
g124
F0.4
sg19
S'(0.4, country)'
p875
sg23
g791
sbag0
(g120
g2
Ntp876
Rp877
(dp878
g124
F0.6
sg19
S'(0.6, country)'
p879
sg23
g791
sbag0
(g120
g2
Ntp880
Rp881
(dp882
g124
F0.8
sg19
S'(0.8, country)'
p883
sg23
g791
sbag0
(g138
g2
Ntp884
Rp885
(dp886
g124
F0.2
sg19
S'(0.2, country)'
p887
sg23
g791
sbag0
(g138
g2
Ntp888
Rp889
(dp890
g124
F0.4
sg19
S'(0.4, country)'
p891
sg23
g791
sbag0
(g138
g2
Ntp892
Rp893
(dp894
g124
F0.6
sg19
S'(0.6, country)'
p895
sg23
g791
sbag0
(g138
g2
Ntp896
Rp897
(dp898
g124
F0.8
sg19
S'(0.8, country)'
p899
sg23
g791
sbag0
(g155
g2
Ntp900
Rp901
(dp902
g124
F0.2
sg19
S'(0.2, country)'
p903
sg23
g791
sbag0
(g155
g2
Ntp904
Rp905
(dp906
g124
F0.4
sg19
S'(0.4, country)'
p907
sg23
g791
sbag0
(g155
g2
Ntp908
Rp909
(dp910
g124
F0.6
sg19
S'(0.6, country)'
p911
sg23
g791
sbag0
(g155
g2
Ntp912
Rp913
(dp914
g124
F0.8
sg19
S'(0.8, country)'
p915
sg23
g791
sbag0
(g172
g2
Ntp916
Rp917
(dp918
g124
F0.2
sg19
S'(0.2, country)'
p919
sg23
g791
sbag0
(g172
g2
Ntp920
Rp921
(dp922
g124
F0.4
sg19
S'(0.4, country)'
p923
sg23
g791
sbag0
(g172
g2
Ntp924
Rp925
(dp926
g124
F0.6
sg19
S'(0.6, country)'
p927
sg23
g791
sbag0
(g172
g2
Ntp928
Rp929
(dp930
g124
F0.8
sg19
S'(0.8, country)'
p931
sg23
g791
sbag0
(g189
g2
Ntp932
Rp933
(dp934
g124
I1
sg19
S'(1, country)'
p935
sg23
g791
sbag0
(g189
g2
Ntp936
Rp937
(dp938
g124
I2
sg19
S'(2, country)'
p939
sg23
g791
sbag0
(g189
g2
Ntp940
Rp941
(dp942
g124
I3
sg19
S'(3, country)'
p943
sg23
g791
sbag0
(g189
g2
Ntp944
Rp945
(dp946
g124
I4
sg19
S'(4, country)'
p947
sg23
g791
sbag0
(g206
g2
Ntp948
Rp949
(dp950
g124
I1
sg19
S'(1, country)'
p951
sg23
g791
sbag0
(g206
g2
Ntp952
Rp953
(dp954
g124
I2
sg19
S'(2, country)'
p955
sg23
g791
sbag0
(g206
g2
Ntp956
Rp957
(dp958
g124
I3
sg19
S'(3, country)'
p959
sg23
g791
sbag0
(g206
g2
Ntp960
Rp961
(dp962
g124
I4
sg19
S'(4, country)'
p963
sg23
g791
sbag0
(g591
g2
Ntp964
Rp965
(dp966
g18
I-860038014
sg19
S'(Exists, country)'
p967
sg23
g791
sbasg23
g791
sg223
S'(country: String)'
p968
sg225
I01
sg226
g227
sbasS'_variables'
p969
(lp970
g10
ag229
ag411
ag598
ag784
ag0
(cdedupe.variables.base
MissingDataType
p971
g2
Ntp972
Rp973
(dp974
g223
S'((affiliation: String): Not Missing)'
p975
sg225
I00
sbag0
(g971
g2
Ntp976
Rp977
(dp978
g223
S'((city: String): Not Missing)'
p979
sg225
I00
sbag0
(g971
g2
Ntp980
Rp981
(dp982
g223
S'((country: String): Not Missing)'
p983
sg225
I00
sbasS'_missing_field_indices'
p984
(lp985
I2
aI3
aI4
asS'_derived_start'
p986
I5
sS'_interaction_indices'
p987
(lp988
sb.ccopy_reg
_reconstructor
p0
(crlr.lr
RegularizedLogisticRegression
p1
c__builtin__
object
p2
Ntp3
Rp4
(dp5
S'alpha'
p6
F0.1
sS'bias'
p7
cnumpy.core.multiarray
scalar
p8
(cnumpy
dtype
p9
(S'f8'
p10
I0
I1
tp11
Rp12
(I3
S'<'
p13
NNNI-1
I-1
I0
tp14
bS'\x956@WQ\xd1\x1e@'
p15
tp16
Rp17
sS'num_cores'
p18
I0
sS'cv'
p19
I3
sS'weights'
p20
cnumpy.core.multiarray
_reconstruct
p21
(cnumpy
ndarray
p22
(I0
tp23
S'b'
p24
tp25
Rp26
(I1
(L8L
tp27
g12
I00
S'\xb0\x1c\x88\xf2\x08\xc3\x05\xc0z]\xc0\x95\xc0\x10\x01\xc0*\xaa\xd24\x1bz\xd1\xbf\xd3W\xc3\xdfLe\xb1\xbf\xb2\xa6+\xad\x8fc\xa9\xbf\xf2\x10b\nR\x16\xd7?\xf2\x10b\nR\x16\xd7?\xf2\x10b\nR\x16\xd7?'
p28
tp29
bsb.(ccopy_reg
_reconstructor
p0
(cdedupe.predicates
StringPredicate
p1
c__builtin__
object
p2
Ntp3
Rp4
(dp5
S'_cached_hash'
p6
I-2076635098
sS'__name__'
p7
S'(commonThreeTokens, init_name)'
p8
sS'func'
p9
cdedupe.predicates
commonThreeTokens
p10
sS'field'
p11
S'init_name'
p12
sbg0
(cdedupe.predicates
CompoundPredicate
p13
c__builtin__
tuple
p14
(g0
(g1
g2
Ntp15
Rp16
(dp17
g6
I34899040
sg7
S'(sameFiveCharStartPredicate, full_name)'
p18
sg9
cdedupe.predicates
sameFiveCharStartPredicate
p19
sg11
S'full_name'
p20
sbg0
(g1
g2
Ntp21
Rp22
(dp23
g6
I-1923218583
sg7
S'(sameSevenCharStartPredicate, init_name)'
p24
sg9
cdedupe.predicates
sameSevenCharStartPredicate
p25
sg11
g12
sbtp26
tp27
Rp28
tp29
.