ccopy_reg
_reconstructor
p0
(cdedupe.datamodel
DataModel
p1
c__builtin__
object
p2
Ntp3
Rp4
(dp5
S'primary_fields'
p6
(lp7
g0
(cdedupe.variables.string
StringType
p8
g2
Ntp9
Rp10
(dp11
S'predicates'
p12
(lp13
g0
(cdedupe.predicates
StringPredicate
p14
g2
Ntp15
Rp16
(dp17
S'_cached_hash'
p18
I-1948419031
sS'__name__'
p19
S'(wholeFieldPredicate, init_name)'
p20
sS'func'
p21
cdedupe.predicates
wholeFieldPredicate
p22
sS'field'
p23
S'init_name'
p24
sbag0
(g14
g2
Ntp25
Rp26
(dp27
g18
I-1960134505
sg19
S'(firstTokenPredicate, init_name)'
p28
sg21
cdedupe.predicates
firstTokenPredicate
p29
sg23
g24
sbag0
(g14
g2
Ntp30
Rp31
(dp32
g18
I-1533663318
sg19
S'(commonIntegerPredicate, init_name)'
p33
sg21
cdedupe.predicates
commonIntegerPredicate
p34
sg23
g24
sbag0
(g14
g2
Ntp35
Rp36
(dp37
g18
I-1927580997
sg19
S'(nearIntegersPredicate, init_name)'
p38
sg21
cdedupe.predicates
nearIntegersPredicate
p39
sg23
g24
sbag0
(g14
g2
Ntp40
Rp41
(dp42
g18
I398604482
sg19
S'(firstIntegerPredicate, init_name)'
p43
sg21
cdedupe.predicates
firstIntegerPredicate
p44
sg23
g24
sbag0
(g14
g2
Ntp45
Rp46
(dp47
g18
I1855346686
sg19
S'(sameThreeCharStartPredicate, init_name)'
p48
sg21
cdedupe.predicates
sameThreeCharStartPredicate
p49
sg23
g24
sbag0
(g14
g2
Ntp50
Rp51
(dp52
g18
I1918151529
sg19
S'(sameFiveCharStartPredicate, init_name)'
p53
sg21
cdedupe.predicates
sameFiveCharStartPredicate
p54
sg23
g24
sbag0
(g14
g2
Ntp55
Rp56
(dp57
g18
I-1923218583
sg19
S'(sameSevenCharStartPredicate, init_name)'
p58
sg21
cdedupe.predicates
sameSevenCharStartPredicate
p59
sg23
g24
sbag0
(g14
g2
Ntp60
Rp61
(dp62
g18
I65347266
sg19
S'(commonTwoTokens, init_name)'
p63
sg21
cdedupe.predicates
commonTwoTokens
p64
sg23
g24
sbag0
(g14
g2
Ntp65
Rp66
(dp67
g18
I-2076635098
sg19
S'(commonThreeTokens, init_name)'
p68
sg21
cdedupe.predicates
commonThreeTokens
p69
sg23
g24
sbag0
(g14
g2
Ntp70
Rp71
(dp72
g18
I1432369183
sg19
S'(fingerprint, init_name)'
p73
sg21
cdedupe.predicates
fingerprint
p74
sg23
g24
sbag0
(g14
g2
Ntp75
Rp76
(dp77
g18
I-729161761
sg19
S'(oneGramFingerprint, init_name)'
p78
sg21
cdedupe.predicates
oneGramFingerprint
p79
sg23
g24
sbag0
(g14
g2
Ntp80
Rp81
(dp82
g18
I-811611131
sg19
S'(twoGramFingerprint, init_name)'
p83
sg21
cdedupe.predicates
twoGramFingerprint
p84
sg23
g24
sbag0
(g14
g2
Ntp85
Rp86
(dp87
g18
I1234626079
sg19
S'(sortedAcronym, init_name)'
p88
sg21
cdedupe.predicates
sortedAcronym
p89
sg23
g24
sbag0
(g14
g2
Ntp90
Rp91
(dp92
g18
I1742000570
sg19
S'(commonFourGram, init_name)'
p93
sg21
cdedupe.predicates
commonFourGram
p94
sg23
g24
sbag0
(g14
g2
Ntp95
Rp96
(dp97
g18
I-462870595
sg19
S'(commonSixGram, init_name)'
p98
sg21
cdedupe.predicates
commonSixGram
p99
sg23
g24
sbag0
(g14
g2
Ntp100
Rp101
(dp102
g18
I910775959
sg19
S'(tokenFieldPredicate, init_name)'
p103
sg21
cdedupe.predicates
tokenFieldPredicate
p104
sg23
g24
sbag0
(g14
g2
Ntp105
Rp106
(dp107
g18
I1766232161
sg19
S'(suffixArray, init_name)'
p108
sg21
cdedupe.predicates
suffixArray
p109
sg23
g24
sbag0
(g14
g2
Ntp110
Rp111
(dp112
g18
I2109623943
sg19
S'(doubleMetaphone, init_name)'
p113
sg21
cdedupe.predicates
doubleMetaphone
p114
sg23
g24
sbag0
(g14
g2
Ntp115
Rp116
(dp117
g18
I1884469432
sg19
S'(metaphoneToken, init_name)'
p118
sg21
cdedupe.predicates
metaphoneToken
p119
sg23
g24
sbag0
(cdedupe.predicates
TfidfNGramCanopyPredicate
p120
g2
Ntp121
Rp122
(dp123
S'threshold'
p124
F0.2
sg19
S'(0.2, init_name)'
p125
sg23
g24
sbag0
(g120
g2
Ntp126
Rp127
(dp128
g124
F0.4
sg19
S'(0.4, init_name)'
p129
sg23
g24
sbag0
(g120
g2
Ntp130
Rp131
(dp132
g124
F0.6
sg19
S'(0.6, init_name)'
p133
sg23
g24
sbag0
(g120
g2
Ntp134
Rp135
(dp136
g124
F0.8
sg19
S'(0.8, init_name)'
p137
sg23
g24
sbag0
(cdedupe.predicates
TfidfNGramSearchPredicate
p138
g2
Ntp139
Rp140
(dp141
g124
F0.2
sg19
S'(0.2, init_name)'
p142
sg23
g24
sbag0
(g138
g2
Ntp143
Rp144
(dp145
g124
F0.4
sg19
S'(0.4, init_name)'
p146
sg23
g24
sbag0
(g138
g2
Ntp147
Rp148
(dp149
g124
F0.6
sg19
S'(0.6, init_name)'
p150
sg23
g24
sbag0
(g138
g2
Ntp151
Rp152
(dp153
g124
F0.8
sg19
S'(0.8, init_name)'
p154
sg23
g24
sbag0
(cdedupe.predicates
TfidfTextCanopyPredicate
p155
g2
Ntp156
Rp157
(dp158
g124
F0.2
sg19
S'(0.2, init_name)'
p159
sg23
g24
sbag0
(g155
g2
Ntp160
Rp161
(dp162
g124
F0.4
sg19
S'(0.4, init_name)'
p163
sg23
g24
sbag0
(g155
g2
Ntp164
Rp165
(dp166
g124
F0.6
sg19
S'(0.6, init_name)'
p167
sg23
g24
sbag0
(g155
g2
Ntp168
Rp169
(dp170
g124
F0.8
sg19
S'(0.8, init_name)'
p171
sg23
g24
sbag0
(cdedupe.predicates
TfidfTextSearchPredicate
p172
g2
Ntp173
Rp174
(dp175
g124
F0.2
sg19
S'(0.2, init_name)'
p176
sg23
g24
sbag0
(g172
g2
Ntp177
Rp178
(dp179
g124
F0.4
sg19
S'(0.4, init_name)'
p180
sg23
g24
sbag0
(g172
g2
Ntp181
Rp182
(dp183
g124
F0.6
sg19
S'(0.6, init_name)'
p184
sg23
g24
sbag0
(g172
g2
Ntp185
Rp186
(dp187
g124
F0.8
sg19
S'(0.8, init_name)'
p188
sg23
g24
sbag0
(cdedupe.predicates
LevenshteinCanopyPredicate
p189
g2
Ntp190
Rp191
(dp192
g124
I1
sg19
S'(1, init_name)'
p193
sg23
g24
sbag0
(g189
g2
Ntp194
Rp195
(dp196
g124
I2
sg19
S'(2, init_name)'
p197
sg23
g24
sbag0
(g189
g2
Ntp198
Rp199
(dp200
g124
I3
sg19
S'(3, init_name)'
p201
sg23
g24
sbag0
(g189
g2
Ntp202
Rp203
(dp204
g124
I4
sg19
S'(4, init_name)'
p205
sg23
g24
sbag0
(cdedupe.predicates
LevenshteinSearchPredicate
p206
g2
Ntp207
Rp208
(dp209
g124
I1
sg19
S'(1, init_name)'
p210
sg23
g24
sbag0
(g206
g2
Ntp211
Rp212
(dp213
g124
I2
sg19
S'(2, init_name)'
p214
sg23
g24
sbag0
(g206
g2
Ntp215
Rp216
(dp217
g124
I3
sg19
S'(3, init_name)'
p218
sg23
g24
sbag0
(g206
g2
Ntp219
Rp220
(dp221
g124
I4
sg19
S'(4, init_name)'
p222
sg23
g24
sbasg23
g24
sS'name'
p223
S'(init_name: String)'
p224
sS'has_missing'
p225
I00
sS'comparator'
p226
caffinegap.affinegap
normalizedAffineGapDistance
p227
sbag0
(g8
g2
Ntp228
Rp229
(dp230
g12
(lp231
g0
(g14
g2
Ntp232
Rp233
(dp234
g18
I1668565555
sg19
S'(wholeFieldPredicate, last_name)'
p235
sg21
g22
sg23
S'last_name'
p236
sbag0
(g14
g2
Ntp237
Rp238
(dp239
g18
I1037936961
sg19
S'(firstTokenPredicate, last_name)'
p240
sg21
g29
sg23
g236
sbag0
(g14
g2
Ntp241
Rp242
(dp243
g18
I862119004
sg19
S'(commonIntegerPredicate, last_name)'
p244
sg21
g34
sg23
g236
sbag0
(g14
g2
Ntp245
Rp246
(dp247
g18
I2004499361
sg19
S'(nearIntegersPredicate, last_name)'
p248
sg21
g39
sg23
g236
sbag0
(g14
g2
Ntp249
Rp250
(dp251
g18
I-790176840
sg19
S'(firstIntegerPredicate, last_name)'
p252
sg21
g44
sg23
g236
sbag0
(g14
g2
Ntp253
Rp254
(dp255
g18
I1951642952
sg19
S'(sameThreeCharStartPredicate, last_name)'
p256
sg21
g49
sg23
g236
sbag0
(g14
g2
Ntp257
Rp258
(dp259
g18
I-576750637
sg19
S'(sameFiveCharStartPredicate, last_name)'
p260
sg21
g54
sg23
g236
sbag0
(g14
g2
Ntp261
Rp262
(dp263
g18
I1615305731
sg19
S'(sameSevenCharStartPredicate, last_name)'
p264
sg21
g59
sg23
g236
sbag0
(g14
g2
Ntp265
Rp266
(dp267
g18
I-253070668
sg19
S'(commonTwoTokens, last_name)'
p268
sg21
g64
sg23
g236
sbag0
(g14
g2
Ntp269
Rp270
(dp271
g18
I293721644
sg19
S'(commonThreeTokens, last_name)'
p272
sg21
g69
sg23
g236
sbag0
(g14
g2
Ntp273
Rp274
(dp275
g18
I-1212188919
sg19
S'(fingerprint, last_name)'
p276
sg21
g74
sg23
g236
sbag0
(g14
g2
Ntp277
Rp278
(dp279
g18
I-1047579735
sg19
S'(oneGramFingerprint, last_name)'
p280
sg21
g79
sg23
g236
sbag0
(g14
g2
Ntp281
Rp282
(dp283
g18
I2036083391
sg19
S'(twoGramFingerprint, last_name)'
p284
sg21
g84
sg23
g236
sbag0
(g14
g2
Ntp285
Rp286
(dp287
g18
I-1041742987
sg19
S'(sortedAcronym, last_name)'
p288
sg21
g89
sg23
g236
sbag0
(g14
g2
Ntp289
Rp290
(dp291
g18
I-1148755540
sg19
S'(commonFourGram, last_name)'
p292
sg21
g94
sg23
g236
sbag0
(g14
g2
Ntp293
Rp294
(dp295
g18
I941340587
sg19
S'(commonSixGram, last_name)'
p296
sg21
g99
sg23
g236
sbag0
(g14
g2
Ntp297
Rp298
(dp299
g18
I-386119871
sg19
S'(tokenFieldPredicate, last_name)'
p300
sg21
g104
sg23
g236
sbag0
(g14
g2
Ntp301
Rp302
(dp303
g18
I280831099
sg19
S'(suffixArray, last_name)'
p304
sg21
g109
sg23
g236
sbag0
(g14
g2
Ntp305
Rp306
(dp307
g18
I183147145
sg19
S'(doubleMetaphone, last_name)'
p308
sg21
g114
sg23
g236
sbag0
(g14
g2
Ntp309
Rp310
(dp311
g18
I-1937512046
sg19
S'(metaphoneToken, last_name)'
p312
sg21
g119
sg23
g236
sbag0
(g120
g2
Ntp313
Rp314
(dp315
g124
F0.2
sg19
S'(0.2, last_name)'
p316
sg23
g236
sbag0
(g120
g2
Ntp317
Rp318
(dp319
g124
F0.4
sg19
S'(0.4, last_name)'
p320
sg23
g236
sbag0
(g120
g2
Ntp321
Rp322
(dp323
g124
F0.6
sg19
S'(0.6, last_name)'
p324
sg23
g236
sbag0
(g120
g2
Ntp325
Rp326
(dp327
g124
F0.8
sg19
S'(0.8, last_name)'
p328
sg23
g236
sbag0
(g138
g2
Ntp329
Rp330
(dp331
g124
F0.2
sg19
S'(0.2, last_name)'
p332
sg23
g236
sbag0
(g138
g2
Ntp333
Rp334
(dp335
g124
F0.4
sg19
S'(0.4, last_name)'
p336
sg23
g236
sbag0
(g138
g2
Ntp337
Rp338
(dp339
g124
F0.6
sg19
S'(0.6, last_name)'
p340
sg23
g236
sbag0
(g138
g2
Ntp341
Rp342
(dp343
g124
F0.8
sg19
S'(0.8, last_name)'
p344
sg23
g236
sbag0
(g155
g2
Ntp345
Rp346
(dp347
g124
F0.2
sg19
S'(0.2, last_name)'
p348
sg23
g236
sbag0
(g155
g2
Ntp349
Rp350
(dp351
g124
F0.4
sg19
S'(0.4, last_name)'
p352
sg23
g236
sbag0
(g155
g2
Ntp353
Rp354
(dp355
g124
F0.6
sg19
S'(0.6, last_name)'
p356
sg23
g236
sbag0
(g155
g2
Ntp357
Rp358
(dp359
g124
F0.8
sg19
S'(0.8, last_name)'
p360
sg23
g236
sbag0
(g172
g2
Ntp361
Rp362
(dp363
g124
F0.2
sg19
S'(0.2, last_name)'
p364
sg23
g236
sbag0
(g172
g2
Ntp365
Rp366
(dp367
g124
F0.4
sg19
S'(0.4, last_name)'
p368
sg23
g236
sbag0
(g172
g2
Ntp369
Rp370
(dp371
g124
F0.6
sg19
S'(0.6, last_name)'
p372
sg23
g236
sbag0
(g172
g2
Ntp373
Rp374
(dp375
g124
F0.8
sg19
S'(0.8, last_name)'
p376
sg23
g236
sbag0
(g189
g2
Ntp377
Rp378
(dp379
g124
I1
sg19
S'(1, last_name)'
p380
sg23
g236
sbag0
(g189
g2
Ntp381
Rp382
(dp383
g124
I2
sg19
S'(2, last_name)'
p384
sg23
g236
sbag0
(g189
g2
Ntp385
Rp386
(dp387
g124
I3
sg19
S'(3, last_name)'
p388
sg23
g236
sbag0
(g189
g2
Ntp389
Rp390
(dp391
g124
I4
sg19
S'(4, last_name)'
p392
sg23
g236
sbag0
(g206
g2
Ntp393
Rp394
(dp395
g124
I1
sg19
S'(1, last_name)'
p396
sg23
g236
sbag0
(g206
g2
Ntp397
Rp398
(dp399
g124
I2
sg19
S'(2, last_name)'
p400
sg23
g236
sbag0
(g206
g2
Ntp401
Rp402
(dp403
g124
I3
sg19
S'(3, last_name)'
p404
sg23
g236
sbag0
(g206
g2
Ntp405
Rp406
(dp407
g124
I4
sg19
S'(4, last_name)'
p408
sg23
g236
sbasg23
g236
sg223
S'(last_name: String)'
p409
sg225
I00
sg226
g227
sbag0
(g8
g2
Ntp410
Rp411
(dp412
g12
(lp413
g0
(g14
g2
Ntp414
Rp415
(dp416
g18
I-1329739452
sg19
S'(wholeFieldPredicate, first_name)'
p417
sg21
g22
sg23
S'first_name'
p418
sbag0
(g14
g2
Ntp419
Rp420
(dp421
g18
I588811546
sg19
S'(firstTokenPredicate, first_name)'
p422
sg21
g29
sg23
g418
sbag0
(g14
g2
Ntp423
Rp424
(dp425
g18
I1264812965
sg19
S'(commonIntegerPredicate, first_name)'
p426
sg21
g34
sg23
g418
sbag0
(g14
g2
Ntp427
Rp428
(dp429
g18
I1222584306
sg19
S'(nearIntegersPredicate, first_name)'
p430
sg21
g39
sg23
g418
sbag0
(g14
g2
Ntp431
Rp432
(dp433
g18
I839743993
sg19
S'(firstIntegerPredicate, first_name)'
p434
sg21
g44
sg23
g418
sbag0
(g14
g2
Ntp435
Rp436
(dp437
g18
I427940685
sg19
S'(sameThreeCharStartPredicate, first_name)'
p438
sg21
g49
sg23
g418
sbag0
(g14
g2
Ntp439
Rp440
(dp441
g18
I310811028
sg19
S'(sameFiveCharStartPredicate, first_name)'
p442
sg21
g54
sg23
g418
sbag0
(g14
g2
Ntp443
Rp444
(dp445
g18
I-1792253692
sg19
S'(sameSevenCharStartPredicate, first_name)'
p446
sg21
g59
sg23
g418
sbag0
(g14
g2
Ntp447
Rp448
(dp449
g18
I1975211681
sg19
S'(commonTwoTokens, first_name)'
p450
sg21
g64
sg23
g418
sbag0
(g14
g2
Ntp451
Rp452
(dp453
g18
I495404005
sg19
S'(commonThreeTokens, first_name)'
p454
sg21
g69
sg23
g418
sbag0
(g14
g2
Ntp455
Rp456
(dp457
g18
I-894839886
sg19
S'(fingerprint, first_name)'
p458
sg21
g74
sg23
g418
sbag0
(g14
g2
Ntp459
Rp460
(dp461
g18
I-644097602
sg19
S'(oneGramFingerprint, first_name)'
p462
sg21
g79
sg23
g418
sbag0
(g14
g2
Ntp463
Rp464
(dp465
g18
I1022704200
sg19
S'(twoGramFingerprint, first_name)'
p466
sg21
g84
sg23
g418
sbag0
(g14
g2
Ntp467
Rp468
(dp469
g18
I740139734
sg19
S'(sortedAcronym, first_name)'
p470
sg21
g89
sg23
g418
sbag0
(g14
g2
Ntp471
Rp472
(dp473
g18
I-478370347
sg19
S'(commonFourGram, first_name)'
p474
sg21
g94
sg23
g418
sbag0
(g14
g2
Ntp475
Rp476
(dp477
g18
I-965007404
sg19
S'(commonSixGram, first_name)'
p478
sg21
g99
sg23
g418
sbag0
(g14
g2
Ntp479
Rp480
(dp481
g18
I316139290
sg19
S'(tokenFieldPredicate, first_name)'
p482
sg21
g104
sg23
g418
sbag0
(g14
g2
Ntp483
Rp484
(dp485
g18
I2085121708
sg19
S'(suffixArray, first_name)'
p486
sg21
g109
sg23
g418
sbag0
(g14
g2
Ntp487
Rp488
(dp489
g18
I-1804318902
sg19
S'(doubleMetaphone, first_name)'
p490
sg21
g114
sg23
g418
sbag0
(g14
g2
Ntp491
Rp492
(dp493
g18
I338890999
sg19
S'(metaphoneToken, first_name)'
p494
sg21
g119
sg23
g418
sbag0
(g120
g2
Ntp495
Rp496
(dp497
g124
F0.2
sg19
S'(0.2, first_name)'
p498
sg23
g418
sbag0
(g120
g2
Ntp499
Rp500
(dp501
g124
F0.4
sg19
S'(0.4, first_name)'
p502
sg23
g418
sbag0
(g120
g2
Ntp503
Rp504
(dp505
g124
F0.6
sg19
S'(0.6, first_name)'
p506
sg23
g418
sbag0
(g120
g2
Ntp507
Rp508
(dp509
g124
F0.8
sg19
S'(0.8, first_name)'
p510
sg23
g418
sbag0
(g138
g2
Ntp511
Rp512
(dp513
g124
F0.2
sg19
S'(0.2, first_name)'
p514
sg23
g418
sbag0
(g138
g2
Ntp515
Rp516
(dp517
g124
F0.4
sg19
S'(0.4, first_name)'
p518
sg23
g418
sbag0
(g138
g2
Ntp519
Rp520
(dp521
g124
F0.6
sg19
S'(0.6, first_name)'
p522
sg23
g418
sbag0
(g138
g2
Ntp523
Rp524
(dp525
g124
F0.8
sg19
S'(0.8, first_name)'
p526
sg23
g418
sbag0
(g155
g2
Ntp527
Rp528
(dp529
g124
F0.2
sg19
S'(0.2, first_name)'
p530
sg23
g418
sbag0
(g155
g2
Ntp531
Rp532
(dp533
g124
F0.4
sg19
S'(0.4, first_name)'
p534
sg23
g418
sbag0
(g155
g2
Ntp535
Rp536
(dp537
g124
F0.6
sg19
S'(0.6, first_name)'
p538
sg23
g418
sbag0
(g155
g2
Ntp539
Rp540
(dp541
g124
F0.8
sg19
S'(0.8, first_name)'
p542
sg23
g418
sbag0
(g172
g2
Ntp543
Rp544
(dp545
g124
F0.2
sg19
S'(0.2, first_name)'
p546
sg23
g418
sbag0
(g172
g2
Ntp547
Rp548
(dp549
g124
F0.4
sg19
S'(0.4, first_name)'
p550
sg23
g418
sbag0
(g172
g2
Ntp551
Rp552
(dp553
g124
F0.6
sg19
S'(0.6, first_name)'
p554
sg23
g418
sbag0
(g172
g2
Ntp555
Rp556
(dp557
g124
F0.8
sg19
S'(0.8, first_name)'
p558
sg23
g418
sbag0
(g189
g2
Ntp559
Rp560
(dp561
g124
I1
sg19
S'(1, first_name)'
p562
sg23
g418
sbag0
(g189
g2
Ntp563
Rp564
(dp565
g124
I2
sg19
S'(2, first_name)'
p566
sg23
g418
sbag0
(g189
g2
Ntp567
Rp568
(dp569
g124
I3
sg19
S'(3, first_name)'
p570
sg23
g418
sbag0
(g189
g2
Ntp571
Rp572
(dp573
g124
I4
sg19
S'(4, first_name)'
p574
sg23
g418
sbag0
(g206
g2
Ntp575
Rp576
(dp577
g124
I1
sg19
S'(1, first_name)'
p578
sg23
g418
sbag0
(g206
g2
Ntp579
Rp580
(dp581
g124
I2
sg19
S'(2, first_name)'
p582
sg23
g418
sbag0
(g206
g2
Ntp583
Rp584
(dp585
g124
I3
sg19
S'(3, first_name)'
p586
sg23
g418
sbag0
(g206
g2
Ntp587
Rp588
(dp589
g124
I4
sg19
S'(4, first_name)'
p590
sg23
g418
sbasg23
g418
sg223
S'(first_name: String)'
p591
sg225
I00
sg226
g227
sbag0
(g8
g2
Ntp592
Rp593
(dp594
g12
(lp595
g0
(g14
g2
Ntp596
Rp597
(dp598
g18
I1060823469
sg19
S'(wholeFieldPredicate, affiliation)'
p599
sg21
g22
sg23
S'affiliation'
p600
sbag0
(g14
g2
Ntp601
Rp602
(dp603
g18
I-1466086765
sg19
S'(firstTokenPredicate, affiliation)'
p604
sg21
g29
sg23
g600
sbag0
(g14
g2
Ntp605
Rp606
(dp607
g18
I-216991954
sg19
S'(commonIntegerPredicate, affiliation)'
p608
sg21
g34
sg23
g600
sbag0
(g14
g2
Ntp609
Rp610
(dp611
g18
I-486961573
sg19
S'(nearIntegersPredicate, affiliation)'
p612
sg21
g39
sg23
g600
sbag0
(g14
g2
Ntp613
Rp614
(dp615
g18
I1786197982
sg19
S'(firstIntegerPredicate, affiliation)'
p616
sg21
g44
sg23
g600
sbag0
(g14
g2
Ntp617
Rp618
(dp619
g18
I-82718450
sg19
S'(sameThreeCharStartPredicate, affiliation)'
p620
sg21
g49
sg23
g600
sbag0
(g14
g2
Ntp621
Rp622
(dp623
g18
I-14971727
sg19
S'(sameFiveCharStartPredicate, affiliation)'
p624
sg21
g54
sg23
g600
sbag0
(g14
g2
Ntp625
Rp626
(dp627
g18
I754600333
sg19
S'(sameSevenCharStartPredicate, affiliation)'
p628
sg21
g59
sg23
g600
sbag0
(g14
g2
Ntp629
Rp630
(dp631
g18
I-706249966
sg19
S'(commonTwoTokens, affiliation)'
p632
sg21
g64
sg23
g600
sbag0
(g14
g2
Ntp633
Rp634
(dp635
g18
I1109022130
sg19
S'(commonThreeTokens, affiliation)'
p636
sg21
g69
sg23
g600
sbag0
(g14
g2
Ntp637
Rp638
(dp639
g18
I-2016003077
sg19
S'(fingerprint, affiliation)'
p640
sg21
g74
sg23
g600
sbag0
(g14
g2
Ntp641
Rp642
(dp643
g18
I-2005941233
sg19
S'(oneGramFingerprint, affiliation)'
p644
sg21
g79
sg23
g600
sbag0
(g14
g2
Ntp645
Rp646
(dp647
g18
I-1380930323
sg19
S'(twoGramFingerprint, affiliation)'
p648
sg21
g84
sg23
g600
sbag0
(g14
g2
Ntp649
Rp650
(dp651
g18
I511877127
sg19
S'(sortedAcronym, affiliation)'
p652
sg21
g89
sg23
g600
sbag0
(g14
g2
Ntp653
Rp654
(dp655
g18
I1658833758
sg19
S'(commonFourGram, affiliation)'
p656
sg21
g94
sg23
g600
sbag0
(g14
g2
Ntp657
Rp658
(dp659
g18
I117428573
sg19
S'(commonSixGram, affiliation)'
p660
sg21
g99
sg23
g600
sbag0
(g14
g2
Ntp661
Rp662
(dp663
g18
I48617619
sg19
S'(tokenFieldPredicate, affiliation)'
p664
sg21
g104
sg23
g600
sbag0
(g14
g2
Ntp665
Rp666
(dp667
g18
I-2115570683
sg19
S'(suffixArray, affiliation)'
p668
sg21
g109
sg23
g600
sbag0
(g14
g2
Ntp669
Rp670
(dp671
g18
I-128182021
sg19
S'(doubleMetaphone, affiliation)'
p672
sg21
g114
sg23
g600
sbag0
(g14
g2
Ntp673
Rp674
(dp675
g18
I-1240303132
sg19
S'(metaphoneToken, affiliation)'
p676
sg21
g119
sg23
g600
sbag0
(g120
g2
Ntp677
Rp678
(dp679
g124
F0.2
sg19
S'(0.2, affiliation)'
p680
sg23
g600
sbag0
(g120
g2
Ntp681
Rp682
(dp683
g124
F0.4
sg19
S'(0.4, affiliation)'
p684
sg23
g600
sbag0
(g120
g2
Ntp685
Rp686
(dp687
g124
F0.6
sg19
S'(0.6, affiliation)'
p688
sg23
g600
sbag0
(g120
g2
Ntp689
Rp690
(dp691
g124
F0.8
sg19
S'(0.8, affiliation)'
p692
sg23
g600
sbag0
(g138
g2
Ntp693
Rp694
(dp695
g124
F0.2
sg19
S'(0.2, affiliation)'
p696
sg23
g600
sbag0
(g138
g2
Ntp697
Rp698
(dp699
g124
F0.4
sg19
S'(0.4, affiliation)'
p700
sg23
g600
sbag0
(g138
g2
Ntp701
Rp702
(dp703
g124
F0.6
sg19
S'(0.6, affiliation)'
p704
sg23
g600
sbag0
(g138
g2
Ntp705
Rp706
(dp707
g124
F0.8
sg19
S'(0.8, affiliation)'
p708
sg23
g600
sbag0
(g155
g2
Ntp709
Rp710
(dp711
g124
F0.2
sg19
S'(0.2, affiliation)'
p712
sg23
g600
sbag0
(g155
g2
Ntp713
Rp714
(dp715
g124
F0.4
sg19
S'(0.4, affiliation)'
p716
sg23
g600
sbag0
(g155
g2
Ntp717
Rp718
(dp719
g124
F0.6
sg19
S'(0.6, affiliation)'
p720
sg23
g600
sbag0
(g155
g2
Ntp721
Rp722
(dp723
g124
F0.8
sg19
S'(0.8, affiliation)'
p724
sg23
g600
sbag0
(g172
g2
Ntp725
Rp726
(dp727
g124
F0.2
sg19
S'(0.2, affiliation)'
p728
sg23
g600
sbag0
(g172
g2
Ntp729
Rp730
(dp731
g124
F0.4
sg19
S'(0.4, affiliation)'
p732
sg23
g600
sbag0
(g172
g2
Ntp733
Rp734
(dp735
g124
F0.6
sg19
S'(0.6, affiliation)'
p736
sg23
g600
sbag0
(g172
g2
Ntp737
Rp738
(dp739
g124
F0.8
sg19
S'(0.8, affiliation)'
p740
sg23
g600
sbag0
(g189
g2
Ntp741
Rp742
(dp743
g124
I1
sg19
S'(1, affiliation)'
p744
sg23
g600
sbag0
(g189
g2
Ntp745
Rp746
(dp747
g124
I2
sg19
S'(2, affiliation)'
p748
sg23
g600
sbag0
(g189
g2
Ntp749
Rp750
(dp751
g124
I3
sg19
S'(3, affiliation)'
p752
sg23
g600
sbag0
(g189
g2
Ntp753
Rp754
(dp755
g124
I4
sg19
S'(4, affiliation)'
p756
sg23
g600
sbag0
(g206
g2
Ntp757
Rp758
(dp759
g124
I1
sg19
S'(1, affiliation)'
p760
sg23
g600
sbag0
(g206
g2
Ntp761
Rp762
(dp763
g124
I2
sg19
S'(2, affiliation)'
p764
sg23
g600
sbag0
(g206
g2
Ntp765
Rp766
(dp767
g124
I3
sg19
S'(3, affiliation)'
p768
sg23
g600
sbag0
(g206
g2
Ntp769
Rp770
(dp771
g124
I4
sg19
S'(4, affiliation)'
p772
sg23
g600
sbag0
(cdedupe.predicates
ExistsPredicate
p773
g2
Ntp774
Rp775
(dp776
g18
I-1258986130
sg19
S'(Exists, affiliation)'
p777
sg23
g600
sbasg23
g600
sg223
S'(affiliation: String)'
p778
sg225
I01
sg226
g227
sbag0
(g8
g2
Ntp779
Rp780
(dp781
g12
(lp782
g0
(g14
g2
Ntp783
Rp784
(dp785
g18
I-933240547
sg19
S'(wholeFieldPredicate, city)'
p786
sg21
g22
sg23
S'city'
p787
sbag0
(g14
g2
Ntp788
Rp789
(dp790
g18
I676910839
sg19
S'(firstTokenPredicate, city)'
p791
sg21
g29
sg23
g787
sbag0
(g14
g2
Ntp792
Rp793
(dp794
g18
I1090834444
sg19
S'(commonIntegerPredicate, city)'
p795
sg21
g34
sg23
g787
sbag0
(g14
g2
Ntp796
Rp797
(dp798
g18
I-913075537
sg19
S'(nearIntegersPredicate, city)'
p799
sg21
g39
sg23
g787
sbag0
(g14
g2
Ntp800
Rp801
(dp802
g18
I1423378980
sg19
S'(firstIntegerPredicate, city)'
p803
sg21
g44
sg23
g787
sbag0
(g14
g2
Ntp804
Rp805
(dp806
g18
I758752528
sg19
S'(sameThreeCharStartPredicate, city)'
p807
sg21
g49
sg23
g787
sbag0
(g14
g2
Ntp808
Rp809
(dp810
g18
I-952518759
sg19
S'(sameFiveCharStartPredicate, city)'
p811
sg21
g54
sg23
g787
sbag0
(g14
g2
Ntp812
Rp813
(dp814
g18
I53879309
sg19
S'(sameSevenCharStartPredicate, city)'
p815
sg21
g59
sg23
g787
sbag0
(g14
g2
Ntp816
Rp817
(dp818
g18
I-1320808108
sg19
S'(commonTwoTokens, city)'
p819
sg21
g64
sg23
g787
sbag0
(g14
g2
Ntp820
Rp821
(dp822
g18
I1086287096
sg19
S'(commonThreeTokens, city)'
p823
sg21
g69
sg23
g787
sbag0
(g14
g2
Ntp824
Rp825
(dp826
g18
I-1120176145
sg19
S'(fingerprint, city)'
p827
sg21
g74
sg23
g787
sbag0
(g14
g2
Ntp828
Rp829
(dp830
g18
I2048478295
sg19
S'(oneGramFingerprint, city)'
p831
sg21
g79
sg23
g787
sbag0
(g14
g2
Ntp832
Rp833
(dp834
g18
I-560685851
sg19
S'(twoGramFingerprint, city)'
p835
sg21
g84
sg23
g787
sbag0
(g14
g2
Ntp836
Rp837
(dp838
g18
I184292267
sg19
S'(sortedAcronym, city)'
p839
sg21
g89
sg23
g787
sbag0
(g14
g2
Ntp840
Rp841
(dp842
g18
I-1320074292
sg19
S'(commonFourGram, city)'
p843
sg21
g94
sg23
g787
sbag0
(g14
g2
Ntp844
Rp845
(dp846
g18
I-593652275
sg19
S'(commonSixGram, city)'
p847
sg21
g99
sg23
g787
sbag0
(g14
g2
Ntp848
Rp849
(dp850
g18
I-1979072265
sg19
S'(tokenFieldPredicate, city)'
p851
sg21
g104
sg23
g787
sbag0
(g14
g2
Ntp852
Rp853
(dp854
g18
I1413308517
sg19
S'(suffixArray, city)'
p855
sg21
g109
sg23
g787
sbag0
(g14
g2
Ntp856
Rp857
(dp858
g18
I1248159799
sg19
S'(doubleMetaphone, city)'
p859
sg21
g114
sg23
g787
sbag0
(g14
g2
Ntp860
Rp861
(dp862
g18
I188524298
sg19
S'(metaphoneToken, city)'
p863
sg21
g119
sg23
g787
sbag0
(g120
g2
Ntp864
Rp865
(dp866
g124
F0.2
sg19
S'(0.2, city)'
p867
sg23
g787
sbag0
(g120
g2
Ntp868
Rp869
(dp870
g124
F0.4
sg19
S'(0.4, city)'
p871
sg23
g787
sbag0
(g120
g2
Ntp872
Rp873
(dp874
g124
F0.6
sg19
S'(0.6, city)'
p875
sg23
g787
sbag0
(g120
g2
Ntp876
Rp877
(dp878
g124
F0.8
sg19
S'(0.8, city)'
p879
sg23
g787
sbag0
(g138
g2
Ntp880
Rp881
(dp882
g124
F0.2
sg19
S'(0.2, city)'
p883
sg23
g787
sbag0
(g138
g2
Ntp884
Rp885
(dp886
g124
F0.4
sg19
S'(0.4, city)'
p887
sg23
g787
sbag0
(g138
g2
Ntp888
Rp889
(dp890
g124
F0.6
sg19
S'(0.6, city)'
p891
sg23
g787
sbag0
(g138
g2
Ntp892
Rp893
(dp894
g124
F0.8
sg19
S'(0.8, city)'
p895
sg23
g787
sbag0
(g155
g2
Ntp896
Rp897
(dp898
g124
F0.2
sg19
S'(0.2, city)'
p899
sg23
g787
sbag0
(g155
g2
Ntp900
Rp901
(dp902
g124
F0.4
sg19
S'(0.4, city)'
p903
sg23
g787
sbag0
(g155
g2
Ntp904
Rp905
(dp906
g124
F0.6
sg19
S'(0.6, city)'
p907
sg23
g787
sbag0
(g155
g2
Ntp908
Rp909
(dp910
g124
F0.8
sg19
S'(0.8, city)'
p911
sg23
g787
sbag0
(g172
g2
Ntp912
Rp913
(dp914
g124
F0.2
sg19
S'(0.2, city)'
p915
sg23
g787
sbag0
(g172
g2
Ntp916
Rp917
(dp918
g124
F0.4
sg19
S'(0.4, city)'
p919
sg23
g787
sbag0
(g172
g2
Ntp920
Rp921
(dp922
g124
F0.6
sg19
S'(0.6, city)'
p923
sg23
g787
sbag0
(g172
g2
Ntp924
Rp925
(dp926
g124
F0.8
sg19
S'(0.8, city)'
p927
sg23
g787
sbag0
(g189
g2
Ntp928
Rp929
(dp930
g124
I1
sg19
S'(1, city)'
p931
sg23
g787
sbag0
(g189
g2
Ntp932
Rp933
(dp934
g124
I2
sg19
S'(2, city)'
p935
sg23
g787
sbag0
(g189
g2
Ntp936
Rp937
(dp938
g124
I3
sg19
S'(3, city)'
p939
sg23
g787
sbag0
(g189
g2
Ntp940
Rp941
(dp942
g124
I4
sg19
S'(4, city)'
p943
sg23
g787
sbag0
(g206
g2
Ntp944
Rp945
(dp946
g124
I1
sg19
S'(1, city)'
p947
sg23
g787
sbag0
(g206
g2
Ntp948
Rp949
(dp950
g124
I2
sg19
S'(2, city)'
p951
sg23
g787
sbag0
(g206
g2
Ntp952
Rp953
(dp954
g124
I3
sg19
S'(3, city)'
p955
sg23
g787
sbag0
(g206
g2
Ntp956
Rp957
(dp958
g124
I4
sg19
S'(4, city)'
p959
sg23
g787
sbag0
(g773
g2
Ntp960
Rp961
(dp962
g18
I-1167139060
sg19
S'(Exists, city)'
p963
sg23
g787
sbasg23
g787
sg223
S'(city: String)'
p964
sg225
I01
sg226
g227
sbag0
(g8
g2
Ntp965
Rp966
(dp967
g12
(lp968
g0
(g14
g2
Ntp969
Rp970
(dp971
g18
I-1265868095
sg19
S'(wholeFieldPredicate, country)'
p972
sg21
g22
sg23
S'country'
p973
sbag0
(g14
g2
Ntp974
Rp975
(dp976
g18
I-751683737
sg19
S'(firstTokenPredicate, country)'
p977
sg21
g29
sg23
g973
sbag0
(g14
g2
Ntp978
Rp979
(dp980
g18
I1942705570
sg19
S'(commonIntegerPredicate, country)'
p981
sg21
g34
sg23
g973
sbag0
(g14
g2
Ntp982
Rp983
(dp984
g18
I-1886525521
sg19
S'(nearIntegersPredicate, country)'
p985
sg21
g39
sg23
g973
sbag0
(g14
g2
Ntp986
Rp987
(dp988
g18
I-465374234
sg19
S'(firstIntegerPredicate, country)'
p989
sg21
g44
sg23
g973
sbag0
(g14
g2
Ntp990
Rp991
(dp992
g18
I150876430
sg19
S'(sameThreeCharStartPredicate, country)'
p993
sg21
g49
sg23
g973
sbag0
(g14
g2
Ntp994
Rp995
(dp996
g18
I1365614017
sg19
S'(sameFiveCharStartPredicate, country)'
p997
sg21
g54
sg23
g973
sbag0
(g14
g2
Ntp998
Rp999
(dp1000
g18
I-2098623871
sg19
S'(sameSevenCharStartPredicate, country)'
p1001
sg21
g59
sg23
g973
sbag0
(g14
g2
Ntp1002
Rp1003
(dp1004
g18
I-1960406086
sg19
S'(commonTwoTokens, country)'
p1005
sg21
g64
sg23
g973
sbag0
(g14
g2
Ntp1006
Rp1007
(dp1008
g18
I-167196494
sg19
S'(commonThreeTokens, country)'
p1009
sg21
g69
sg23
g973
sbag0
(g14
g2
Ntp1010
Rp1011
(dp1012
g18
I631954495
sg19
S'(fingerprint, country)'
p1013
sg21
g74
sg23
g973
sbag0
(g14
g2
Ntp1014
Rp1015
(dp1016
g18
I454954175
sg19
S'(oneGramFingerprint, country)'
p1017
sg21
g79
sg23
g973
sbag0
(g14
g2
Ntp1018
Rp1019
(dp1020
g18
I762606533
sg19
S'(twoGramFingerprint, country)'
p1021
sg21
g84
sg23
g973
sbag0
(g14
g2
Ntp1022
Rp1023
(dp1024
g18
I-271823885
sg19
S'(sortedAcronym, country)'
p1025
sg21
g89
sg23
g973
sbag0
(g14
g2
Ntp1026
Rp1027
(dp1028
g18
I-1147470702
sg19
S'(commonFourGram, country)'
p1029
sg21
g94
sg23
g973
sbag0
(g14
g2
Ntp1030
Rp1031
(dp1032
g18
I750592657
sg19
S'(commonSixGram, country)'
p1033
sg21
g99
sg23
g973
sbag0
(g14
g2
Ntp1034
Rp1035
(dp1036
g18
I-2021497497
sg19
S'(tokenFieldPredicate, country)'
p1037
sg21
g104
sg23
g973
sbag0
(g14
g2
Ntp1038
Rp1039
(dp1040
g18
I1856622457
sg19
S'(suffixArray, country)'
p1041
sg21
g109
sg23
g973
sbag0
(g14
g2
Ntp1042
Rp1043
(dp1044
g18
I-1720307865
sg19
S'(doubleMetaphone, country)'
p1045
sg21
g114
sg23
g973
sbag0
(g14
g2
Ntp1046
Rp1047
(dp1048
g18
I-1796164912
sg19
S'(metaphoneToken, country)'
p1049
sg21
g119
sg23
g973
sbag0
(g120
g2
Ntp1050
Rp1051
(dp1052
g124
F0.2
sg19
S'(0.2, country)'
p1053
sg23
g973
sbag0
(g120
g2
Ntp1054
Rp1055
(dp1056
g124
F0.4
sg19
S'(0.4, country)'
p1057
sg23
g973
sbag0
(g120
g2
Ntp1058
Rp1059
(dp1060
g124
F0.6
sg19
S'(0.6, country)'
p1061
sg23
g973
sbag0
(g120
g2
Ntp1062
Rp1063
(dp1064
g124
F0.8
sg19
S'(0.8, country)'
p1065
sg23
g973
sbag0
(g138
g2
Ntp1066
Rp1067
(dp1068
g124
F0.2
sg19
S'(0.2, country)'
p1069
sg23
g973
sbag0
(g138
g2
Ntp1070
Rp1071
(dp1072
g124
F0.4
sg19
S'(0.4, country)'
p1073
sg23
g973
sbag0
(g138
g2
Ntp1074
Rp1075
(dp1076
g124
F0.6
sg19
S'(0.6, country)'
p1077
sg23
g973
sbag0
(g138
g2
Ntp1078
Rp1079
(dp1080
g124
F0.8
sg19
S'(0.8, country)'
p1081
sg23
g973
sbag0
(g155
g2
Ntp1082
Rp1083
(dp1084
g124
F0.2
sg19
S'(0.2, country)'
p1085
sg23
g973
sbag0
(g155
g2
Ntp1086
Rp1087
(dp1088
g124
F0.4
sg19
S'(0.4, country)'
p1089
sg23
g973
sbag0
(g155
g2
Ntp1090
Rp1091
(dp1092
g124
F0.6
sg19
S'(0.6, country)'
p1093
sg23
g973
sbag0
(g155
g2
Ntp1094
Rp1095
(dp1096
g124
F0.8
sg19
S'(0.8, country)'
p1097
sg23
g973
sbag0
(g172
g2
Ntp1098
Rp1099
(dp1100
g124
F0.2
sg19
S'(0.2, country)'
p1101
sg23
g973
sbag0
(g172
g2
Ntp1102
Rp1103
(dp1104
g124
F0.4
sg19
S'(0.4, country)'
p1105
sg23
g973
sbag0
(g172
g2
Ntp1106
Rp1107
(dp1108
g124
F0.6
sg19
S'(0.6, country)'
p1109
sg23
g973
sbag0
(g172
g2
Ntp1110
Rp1111
(dp1112
g124
F0.8
sg19
S'(0.8, country)'
p1113
sg23
g973
sbag0
(g189
g2
Ntp1114
Rp1115
(dp1116
g124
I1
sg19
S'(1, country)'
p1117
sg23
g973
sbag0
(g189
g2
Ntp1118
Rp1119
(dp1120
g124
I2
sg19
S'(2, country)'
p1121
sg23
g973
sbag0
(g189
g2
Ntp1122
Rp1123
(dp1124
g124
I3
sg19
S'(3, country)'
p1125
sg23
g973
sbag0
(g189
g2
Ntp1126
Rp1127
(dp1128
g124
I4
sg19
S'(4, country)'
p1129
sg23
g973
sbag0
(g206
g2
Ntp1130
Rp1131
(dp1132
g124
I1
sg19
S'(1, country)'
p1133
sg23
g973
sbag0
(g206
g2
Ntp1134
Rp1135
(dp1136
g124
I2
sg19
S'(2, country)'
p1137
sg23
g973
sbag0
(g206
g2
Ntp1138
Rp1139
(dp1140
g124
I3
sg19
S'(3, country)'
p1141
sg23
g973
sbag0
(g206
g2
Ntp1142
Rp1143
(dp1144
g124
I4
sg19
S'(4, country)'
p1145
sg23
g973
sbag0
(g773
g2
Ntp1146
Rp1147
(dp1148
g18
I-860038014
sg19
S'(Exists, country)'
p1149
sg23
g973
sbasg23
g973
sg223
S'(country: String)'
p1150
sg225
I01
sg226
g227
sbasS'_variables'
p1151
(lp1152
g10
ag229
ag411
ag593
ag780
ag966
ag0
(cdedupe.variables.base
MissingDataType
p1153
g2
Ntp1154
Rp1155
(dp1156
g223
S'((affiliation: String): Not Missing)'
p1157
sg225
I00
sbag0
(g1153
g2
Ntp1158
Rp1159
(dp1160
g223
S'((city: String): Not Missing)'
p1161
sg225
I00
sbag0
(g1153
g2
Ntp1162
Rp1163
(dp1164
g223
S'((country: String): Not Missing)'
p1165
sg225
I00
sbasS'_missing_field_indices'
p1166
(lp1167
I3
aI4
aI5
asS'_derived_start'
p1168
I6
sS'_interaction_indices'
p1169
(lp1170
sb.ccopy_reg
_reconstructor
p0
(crlr.lr
RegularizedLogisticRegression
p1
c__builtin__
object
p2
Ntp3
Rp4
(dp5
S'alpha'
p6
I1
sS'bias'
p7
cnumpy.core.multiarray
scalar
p8
(cnumpy
dtype
p9
(S'f8'
p10
I0
I1
tp11
Rp12
(I3
S'<'
p13
NNNI-1
I-1
I0
tp14
bS'`\xf7\x18\x00*p\x12@'
p15
tp16
Rp17
sS'num_cores'
p18
I0
sS'cv'
p19
I3
sS'weights'
p20
cnumpy.core.multiarray
_reconstruct
p21
(cnumpy
ndarray
p22
(I0
tp23
S'b'
p24
tp25
Rp26
(I1
(L9L
tp27
g12
I00
S'\x01\xa6\x86\xa1\x0c\xe7\xfc\xbf\x9a\xe0c\xd0\\2\xd6\xbf{\xf1;\x07\xear\xed\xbfc\x0e8\xc9\xff9\xc5?,=\xbe=\x01\xca\xd2?\x02\x1b\xfc$2\xaf\xd2\xbf}\xcc\xb8?y\xce\xc1\xbf}\xcc\xb8?y\xce\xc1\xbf}\xcc\xb8?y\xce\xc1\xbf'
p28
tp29
bsb.(ccopy_reg
_reconstructor
p0
(cdedupe.predicates
CompoundPredicate
p1
c__builtin__
tuple
p2
(g0
(cdedupe.predicates
StringPredicate
p3
c__builtin__
object
p4
Ntp5
Rp6
(dp7
S'_cached_hash'
p8
I-253070668
sS'__name__'
p9
S'(commonTwoTokens, last_name)'
p10
sS'func'
p11
cdedupe.predicates
commonTwoTokens
p12
sS'field'
p13
S'last_name'
p14
sbg0
(cdedupe.predicates
TfidfNGramCanopyPredicate
p15
g4
Ntp16
Rp17
(dp18
S'threshold'
p19
F0.8
sg9
S'(0.8, first_name)'
p20
sg13
S'first_name'
p21
sbtp22
tp23
Rp24
g0
(g1
g2
(g0
(g3
g4
Ntp25
Rp26
(dp27
g8
I-1047579735
sg9
S'(oneGramFingerprint, last_name)'
p28
sg11
cdedupe.predicates
oneGramFingerprint
p29
sg13
g14
sbg0
(g3
g4
Ntp30
Rp31
(dp32
g8
I-1041742987
sg9
S'(sortedAcronym, last_name)'
p33
sg11
cdedupe.predicates
sortedAcronym
p34
sg13
g14
sbtp35
tp36
Rp37
tp38
.